ARM GAS  C:\Users\mgnocco\AppData\Local\Temp\cch8ERvO.s 			page 1


   1              		.syntax unified
   2              		.cpu cortex-m3
   3              		.fpu softvfp
   4              		.eabi_attribute 20, 1
   5              		.eabi_attribute 21, 1
   6              		.eabi_attribute 23, 3
   7              		.eabi_attribute 24, 1
   8              		.eabi_attribute 25, 1
   9              		.eabi_attribute 26, 1
  10              		.eabi_attribute 30, 1
  11              		.eabi_attribute 34, 1
  12              		.eabi_attribute 18, 4
  13              		.thumb
  14              		.syntax unified
  15              		.file	"untitled01.c"
  16              		.text
  17              	.Ltext0:
  18              		.cfi_sections	.debug_frame
  19              		.section	.text.WriteControlRegisterSPI,"ax",%progbits
  20              		.align	2
  21              		.global	WriteControlRegisterSPI
  22              		.thumb
  23              		.thumb_func
  24              		.type	WriteControlRegisterSPI, %function
  25              	WriteControlRegisterSPI:
  26              	.LFB64:
  27              		.file 1 "untitled01.c"
   1:untitled01.c  **** /* ========================================
   2:untitled01.c  ****  *
   3:untitled01.c  ****  * Copyright YOUR COMPANY, THE YEAR
   4:untitled01.c  ****  * All Rights Reserved
   5:untitled01.c  ****  * UNPUBLISHED, LICENSED SOFTWARE.
   6:untitled01.c  ****  *
   7:untitled01.c  ****  * CONFIDENTIAL AND PROPRIETARY INFORMATION
   8:untitled01.c  ****  * WHICH IS THE PROPERTY OF your company.
   9:untitled01.c  ****  *
  10:untitled01.c  ****  * ========================================
  11:untitled01.c  **** */
  12:untitled01.c  **** 
  13:untitled01.c  **** #include "header01.h"
  14:untitled01.c  **** #include "globals.h"
  15:untitled01.c  **** 
  16:untitled01.c  **** void WriteControlRegisterSPI(uint8 address, uint8 dta){
  28              		.loc 1 16 0
  29              		.cfi_startproc
  30              		@ args = 0, pretend = 0, frame = 0
  31              		@ frame_needed = 0, uses_anonymous_args = 0
  32              	.LVL0:
  33 0000 38B5     		push	{r3, r4, r5, lr}
  34              		.cfi_def_cfa_offset 16
  35              		.cfi_offset 3, -16
  36              		.cfi_offset 4, -12
  37              		.cfi_offset 5, -8
  38              		.cfi_offset 14, -4
  39 0002 0546     		mov	r5, r0
  40 0004 0C46     		mov	r4, r1
  17:untitled01.c  ****     
ARM GAS  C:\Users\mgnocco\AppData\Local\Temp\cch8ERvO.s 			page 2


  18:untitled01.c  **** 	SPI_IMU_ClearRxBuffer();
  41              		.loc 1 18 0
  42 0006 FFF7FEFF 		bl	SPI_IMU_ClearRxBuffer
  43              	.LVL1:
  19:untitled01.c  **** 	SPI_IMU_ClearTxBuffer();
  44              		.loc 1 19 0
  45 000a FFF7FEFF 		bl	SPI_IMU_ClearTxBuffer
  46              	.LVL2:
  20:untitled01.c  **** 	SPI_IMU_ClearFIFO();
  47              		.loc 1 20 0
  48 000e FFF7FEFF 		bl	SPI_IMU_ClearFIFO
  49              	.LVL3:
  21:untitled01.c  ****     SPI_IMU_TxEnable();
  50              		.loc 1 21 0
  51 0012 FFF7FEFF 		bl	SPI_IMU_TxEnable
  52              	.LVL4:
  22:untitled01.c  ****     
  23:untitled01.c  **** 	SPI_IMU_WriteByte(LSM6DSRX_WCR | address);
  53              		.loc 1 23 0
  54 0016 2846     		mov	r0, r5
  55 0018 FFF7FEFF 		bl	SPI_IMU_WriteTxData
  56              	.LVL5:
  24:untitled01.c  ****     SPI_IMU_TxDisable();
  57              		.loc 1 24 0
  58 001c FFF7FEFF 		bl	SPI_IMU_TxDisable
  59              	.LVL6:
  60              	.L2:
  25:untitled01.c  **** 	while(!( SPI_IMU_ReadStatus() & SPI_IMU_STS_TX_FIFO_EMPTY));	
  61              		.loc 1 25 0 discriminator 1
  62 0020 FFF7FEFF 		bl	SPI_IMU_ReadStatus
  63              	.LVL7:
  64 0024 10F0020F 		tst	r0, #2
  65 0028 FAD0     		beq	.L2
  26:untitled01.c  ****     SPI_IMU_TxEnable();
  66              		.loc 1 26 0
  67 002a FFF7FEFF 		bl	SPI_IMU_TxEnable
  68              	.LVL8:
  27:untitled01.c  **** 	SPI_IMU_WriteByte(dta);
  69              		.loc 1 27 0
  70 002e 2046     		mov	r0, r4
  71 0030 FFF7FEFF 		bl	SPI_IMU_WriteTxData
  72              	.LVL9:
  28:untitled01.c  ****     SPI_IMU_TxDisable();
  73              		.loc 1 28 0
  74 0034 FFF7FEFF 		bl	SPI_IMU_TxDisable
  75              	.LVL10:
  76              	.L3:
  29:untitled01.c  **** 	while(!( SPI_IMU_ReadStatus() & SPI_IMU_STS_TX_FIFO_EMPTY));
  77              		.loc 1 29 0 discriminator 1
  78 0038 FFF7FEFF 		bl	SPI_IMU_ReadStatus
  79              	.LVL11:
  80 003c 10F0020F 		tst	r0, #2
  81 0040 FAD0     		beq	.L3
  30:untitled01.c  ****     
  31:untitled01.c  **** }
  82              		.loc 1 31 0
  83 0042 38BD     		pop	{r3, r4, r5, pc}
ARM GAS  C:\Users\mgnocco\AppData\Local\Temp\cch8ERvO.s 			page 3


  84              		.cfi_endproc
  85              	.LFE64:
  86              		.size	WriteControlRegisterSPI, .-WriteControlRegisterSPI
  87              		.section	.text.ReadControlRegisterSPI,"ax",%progbits
  88              		.align	2
  89              		.global	ReadControlRegisterSPI
  90              		.thumb
  91              		.thumb_func
  92              		.type	ReadControlRegisterSPI, %function
  93              	ReadControlRegisterSPI:
  94              	.LFB65:
  32:untitled01.c  **** 
  33:untitled01.c  **** /*******************************************************************************
  34:untitled01.c  **** * Function Name: Read Control Register
  35:untitled01.c  **** *********************************************************************************/
  36:untitled01.c  **** uint8 ReadControlRegisterSPI(uint8 address){
  95              		.loc 1 36 0
  96              		.cfi_startproc
  97              		@ args = 0, pretend = 0, frame = 0
  98              		@ frame_needed = 0, uses_anonymous_args = 0
  99              	.LVL12:
 100 0000 10B5     		push	{r4, lr}
 101              		.cfi_def_cfa_offset 8
 102              		.cfi_offset 4, -8
 103              		.cfi_offset 14, -4
 104 0002 0446     		mov	r4, r0
  37:untitled01.c  ****     SPI_IMU_ClearRxBuffer();
 105              		.loc 1 37 0
 106 0004 FFF7FEFF 		bl	SPI_IMU_ClearRxBuffer
 107              	.LVL13:
  38:untitled01.c  **** 	SPI_IMU_ClearTxBuffer();
 108              		.loc 1 38 0
 109 0008 FFF7FEFF 		bl	SPI_IMU_ClearTxBuffer
 110              	.LVL14:
  39:untitled01.c  **** 	SPI_IMU_ClearFIFO();
 111              		.loc 1 39 0
 112 000c FFF7FEFF 		bl	SPI_IMU_ClearFIFO
 113              	.LVL15:
  40:untitled01.c  ****     SPI_IMU_TxEnable();
 114              		.loc 1 40 0
 115 0010 FFF7FEFF 		bl	SPI_IMU_TxEnable
 116              	.LVL16:
  41:untitled01.c  ****     
  42:untitled01.c  **** 	uint8 controlreg = 0;
  43:untitled01.c  **** 	SPI_IMU_WriteByte(LSM6DSRX_RCR | address);
 117              		.loc 1 43 0
 118 0014 44F08000 		orr	r0, r4, #128
 119 0018 FFF7FEFF 		bl	SPI_IMU_WriteTxData
 120              	.LVL17:
  44:untitled01.c  ****  SPI_IMU_TxDisable();
 121              		.loc 1 44 0
 122 001c FFF7FEFF 		bl	SPI_IMU_TxDisable
 123              	.LVL18:
 124              	.L6:
  45:untitled01.c  ****     while(!( SPI_IMU_ReadStatus() & SPI_IMU_STS_TX_FIFO_EMPTY));
 125              		.loc 1 45 0 discriminator 1
 126 0020 FFF7FEFF 		bl	SPI_IMU_ReadStatus
ARM GAS  C:\Users\mgnocco\AppData\Local\Temp\cch8ERvO.s 			page 4


 127              	.LVL19:
 128 0024 10F0020F 		tst	r0, #2
 129 0028 FAD0     		beq	.L6
 130              	.L7:
  46:untitled01.c  ****     while(!( SPI_IMU_ReadStatus() & SPI_IMU_STS_TX_FIFO_EMPTY));
 131              		.loc 1 46 0 discriminator 1
 132 002a FFF7FEFF 		bl	SPI_IMU_ReadStatus
 133              	.LVL20:
 134 002e 10F0020F 		tst	r0, #2
 135 0032 FAD0     		beq	.L7
 136              	.L8:
  47:untitled01.c  **** 	while(!( SPI_IMU_ReadStatus() & SPI_IMU_STS_SPI_DONE));   
 137              		.loc 1 47 0 discriminator 1
 138 0034 FFF7FEFF 		bl	SPI_IMU_ReadStatus
 139              	.LVL21:
 140 0038 10F0010F 		tst	r0, #1
 141 003c FAD0     		beq	.L8
  48:untitled01.c  ****     
  49:untitled01.c  ****     
  50:untitled01.c  **** 	controlreg = SPI_IMU_ReadByte();        //real data    
 142              		.loc 1 50 0
 143 003e FFF7FEFF 		bl	SPI_IMU_ReadRxData
 144              	.LVL22:
  51:untitled01.c  **** 	return controlreg;
  52:untitled01.c  **** }
 145              		.loc 1 52 0
 146 0042 10BD     		pop	{r4, pc}
 147              		.cfi_endproc
 148              	.LFE65:
 149              		.size	ReadControlRegisterSPI, .-ReadControlRegisterSPI
 150              		.text
 151              	.Letext0:
 152              		.file 2 "c:\\program files (x86)\\cypress\\psoc creator\\4.4\\psoc creator\\import\\gnu\\arm\\5.4.
 153              		.file 3 "c:\\program files (x86)\\cypress\\psoc creator\\4.4\\psoc creator\\import\\gnu\\arm\\5.4.
 154              		.file 4 "Generated_Source\\PSoC5/cytypes.h"
 155              		.file 5 "Generated_Source\\PSoC5/SPI_IMU.h"
 156              		.file 6 "Generated_Source\\PSoC5/core_cm3.h"