ARM GAS  C:\Users\mgnocco\AppData\Local\Temp\cc9OgrOS.s 			page 1


   1              		.syntax unified
   2              		.cpu cortex-m3
   3              		.fpu softvfp
   4              		.eabi_attribute 20, 1
   5              		.eabi_attribute 21, 1
   6              		.eabi_attribute 23, 3
   7              		.eabi_attribute 24, 1
   8              		.eabi_attribute 25, 1
   9              		.eabi_attribute 26, 1
  10              		.eabi_attribute 30, 4
  11              		.eabi_attribute 34, 1
  12              		.eabi_attribute 18, 4
  13              		.thumb
  14              		.syntax unified
  15              		.file	"cyfitter_cfg.c"
  16              		.text
  17              	.Ltext0:
  18              		.cfi_sections	.debug_frame
  19              		.section	.text.SetAnalogRoutingPumps,"ax",%progbits
  20              		.align	1
  21              		.global	SetAnalogRoutingPumps
  22              		.thumb
  23              		.thumb_func
  24              		.type	SetAnalogRoutingPumps, %function
  25              	SetAnalogRoutingPumps:
  26              	.LFB7:
  27              		.file 1 "Generated_Source\\PSoC5\\cyfitter_cfg.c"
   1:Generated_Source\PSoC5/cyfitter_cfg.c **** 
   2:Generated_Source\PSoC5/cyfitter_cfg.c **** /*******************************************************************************
   3:Generated_Source\PSoC5/cyfitter_cfg.c **** * File Name: cyfitter_cfg.c
   4:Generated_Source\PSoC5/cyfitter_cfg.c **** * 
   5:Generated_Source\PSoC5/cyfitter_cfg.c **** * PSoC Creator  4.4
   6:Generated_Source\PSoC5/cyfitter_cfg.c **** *
   7:Generated_Source\PSoC5/cyfitter_cfg.c **** * Description:
   8:Generated_Source\PSoC5/cyfitter_cfg.c **** * This file contains device initialization code.
   9:Generated_Source\PSoC5/cyfitter_cfg.c **** * Except for the user defined sections in CyClockStartupError(), this file should not be modified.
  10:Generated_Source\PSoC5/cyfitter_cfg.c **** * This file is automatically generated by PSoC Creator.
  11:Generated_Source\PSoC5/cyfitter_cfg.c **** *
  12:Generated_Source\PSoC5/cyfitter_cfg.c **** ********************************************************************************
  13:Generated_Source\PSoC5/cyfitter_cfg.c **** * Copyright (c) 2007-2020 Cypress Semiconductor.  All rights reserved.
  14:Generated_Source\PSoC5/cyfitter_cfg.c **** * You may use this file only in accordance with the license, terms, conditions, 
  15:Generated_Source\PSoC5/cyfitter_cfg.c **** * disclaimers, and limitations in the end user license agreement accompanying 
  16:Generated_Source\PSoC5/cyfitter_cfg.c **** * the software package with which this file was provided.
  17:Generated_Source\PSoC5/cyfitter_cfg.c **** ********************************************************************************/
  18:Generated_Source\PSoC5/cyfitter_cfg.c **** 
  19:Generated_Source\PSoC5/cyfitter_cfg.c **** #include <string.h>
  20:Generated_Source\PSoC5/cyfitter_cfg.c **** #include "cytypes.h"
  21:Generated_Source\PSoC5/cyfitter_cfg.c **** #include "cydevice_trm.h"
  22:Generated_Source\PSoC5/cyfitter_cfg.c **** #include "cyfitter.h"
  23:Generated_Source\PSoC5/cyfitter_cfg.c **** #include "CyLib.h"
  24:Generated_Source\PSoC5/cyfitter_cfg.c **** #include "cyfitter_cfg.h"
  25:Generated_Source\PSoC5/cyfitter_cfg.c **** #include "cyapicallbacks.h"
  26:Generated_Source\PSoC5/cyfitter_cfg.c **** 
  27:Generated_Source\PSoC5/cyfitter_cfg.c **** #define CY_NEED_CYCLOCKSTARTUPERROR 1
  28:Generated_Source\PSoC5/cyfitter_cfg.c **** 
  29:Generated_Source\PSoC5/cyfitter_cfg.c **** 
  30:Generated_Source\PSoC5/cyfitter_cfg.c **** #if defined(__GNUC__) || defined(__ARMCC_VERSION)
ARM GAS  C:\Users\mgnocco\AppData\Local\Temp\cc9OgrOS.s 			page 2


  31:Generated_Source\PSoC5/cyfitter_cfg.c ****     #define CYPACKED 
  32:Generated_Source\PSoC5/cyfitter_cfg.c ****     #define CYPACKED_ATTR __attribute__ ((packed))
  33:Generated_Source\PSoC5/cyfitter_cfg.c ****     #define CYALIGNED __attribute__ ((aligned))
  34:Generated_Source\PSoC5/cyfitter_cfg.c ****     #define CY_CFG_UNUSED __attribute__ ((unused))
  35:Generated_Source\PSoC5/cyfitter_cfg.c ****     #ifndef CY_CFG_SECTION
  36:Generated_Source\PSoC5/cyfitter_cfg.c ****         #define CY_CFG_SECTION __attribute__ ((section(".psocinit")))
  37:Generated_Source\PSoC5/cyfitter_cfg.c ****     #endif
  38:Generated_Source\PSoC5/cyfitter_cfg.c ****     
  39:Generated_Source\PSoC5/cyfitter_cfg.c ****     #if defined(__ARMCC_VERSION)
  40:Generated_Source\PSoC5/cyfitter_cfg.c ****         #define CY_CFG_MEMORY_BARRIER() __memory_changed()
  41:Generated_Source\PSoC5/cyfitter_cfg.c ****     #else
  42:Generated_Source\PSoC5/cyfitter_cfg.c ****         #define CY_CFG_MEMORY_BARRIER() __sync_synchronize()
  43:Generated_Source\PSoC5/cyfitter_cfg.c ****     #endif
  44:Generated_Source\PSoC5/cyfitter_cfg.c ****     
  45:Generated_Source\PSoC5/cyfitter_cfg.c **** #elif defined(__ICCARM__)
  46:Generated_Source\PSoC5/cyfitter_cfg.c ****     #include <intrinsics.h>
  47:Generated_Source\PSoC5/cyfitter_cfg.c **** 
  48:Generated_Source\PSoC5/cyfitter_cfg.c ****     #define CYPACKED __packed
  49:Generated_Source\PSoC5/cyfitter_cfg.c ****     #define CYPACKED_ATTR 
  50:Generated_Source\PSoC5/cyfitter_cfg.c ****     #define CYALIGNED _Pragma("data_alignment=4")
  51:Generated_Source\PSoC5/cyfitter_cfg.c ****     #define CY_CFG_UNUSED _Pragma("diag_suppress=Pe177")
  52:Generated_Source\PSoC5/cyfitter_cfg.c ****     #define CY_CFG_SECTION _Pragma("location=\".psocinit\"")
  53:Generated_Source\PSoC5/cyfitter_cfg.c ****     
  54:Generated_Source\PSoC5/cyfitter_cfg.c ****     #define CY_CFG_MEMORY_BARRIER() __DMB()
  55:Generated_Source\PSoC5/cyfitter_cfg.c ****     
  56:Generated_Source\PSoC5/cyfitter_cfg.c **** #else
  57:Generated_Source\PSoC5/cyfitter_cfg.c ****     #error Unsupported toolchain
  58:Generated_Source\PSoC5/cyfitter_cfg.c **** #endif
  59:Generated_Source\PSoC5/cyfitter_cfg.c **** 
  60:Generated_Source\PSoC5/cyfitter_cfg.c **** #ifndef CYCODE
  61:Generated_Source\PSoC5/cyfitter_cfg.c ****     #define CYCODE
  62:Generated_Source\PSoC5/cyfitter_cfg.c **** #endif
  63:Generated_Source\PSoC5/cyfitter_cfg.c **** #ifndef CYDATA
  64:Generated_Source\PSoC5/cyfitter_cfg.c ****     #define CYDATA
  65:Generated_Source\PSoC5/cyfitter_cfg.c **** #endif
  66:Generated_Source\PSoC5/cyfitter_cfg.c **** #ifndef CYFAR
  67:Generated_Source\PSoC5/cyfitter_cfg.c ****     #define CYFAR
  68:Generated_Source\PSoC5/cyfitter_cfg.c **** #endif
  69:Generated_Source\PSoC5/cyfitter_cfg.c **** #ifndef CYXDATA
  70:Generated_Source\PSoC5/cyfitter_cfg.c ****     #define CYXDATA
  71:Generated_Source\PSoC5/cyfitter_cfg.c **** #endif
  72:Generated_Source\PSoC5/cyfitter_cfg.c **** 
  73:Generated_Source\PSoC5/cyfitter_cfg.c **** 
  74:Generated_Source\PSoC5/cyfitter_cfg.c **** CY_CFG_UNUSED
  75:Generated_Source\PSoC5/cyfitter_cfg.c **** static void CYMEMZERO(void *s, size_t n);
  76:Generated_Source\PSoC5/cyfitter_cfg.c **** CY_CFG_UNUSED
  77:Generated_Source\PSoC5/cyfitter_cfg.c **** static void CYMEMZERO(void *s, size_t n)
  78:Generated_Source\PSoC5/cyfitter_cfg.c **** {
  79:Generated_Source\PSoC5/cyfitter_cfg.c **** 	(void)memset(s, 0, n);
  80:Generated_Source\PSoC5/cyfitter_cfg.c **** }
  81:Generated_Source\PSoC5/cyfitter_cfg.c **** CY_CFG_UNUSED
  82:Generated_Source\PSoC5/cyfitter_cfg.c **** static void CYCONFIGCPY(void *dest, const void *src, size_t n);
  83:Generated_Source\PSoC5/cyfitter_cfg.c **** CY_CFG_UNUSED
  84:Generated_Source\PSoC5/cyfitter_cfg.c **** static void CYCONFIGCPY(void *dest, const void *src, size_t n)
  85:Generated_Source\PSoC5/cyfitter_cfg.c **** {
  86:Generated_Source\PSoC5/cyfitter_cfg.c **** 	(void)memcpy(dest, src, n);
  87:Generated_Source\PSoC5/cyfitter_cfg.c **** }
ARM GAS  C:\Users\mgnocco\AppData\Local\Temp\cc9OgrOS.s 			page 3


  88:Generated_Source\PSoC5/cyfitter_cfg.c **** CY_CFG_UNUSED
  89:Generated_Source\PSoC5/cyfitter_cfg.c **** static void CYCONFIGCPYCODE(void *dest, const void *src, size_t n);
  90:Generated_Source\PSoC5/cyfitter_cfg.c **** CY_CFG_UNUSED
  91:Generated_Source\PSoC5/cyfitter_cfg.c **** static void CYCONFIGCPYCODE(void *dest, const void *src, size_t n)
  92:Generated_Source\PSoC5/cyfitter_cfg.c **** {
  93:Generated_Source\PSoC5/cyfitter_cfg.c **** 	(void)memcpy(dest, src, n);
  94:Generated_Source\PSoC5/cyfitter_cfg.c **** }
  95:Generated_Source\PSoC5/cyfitter_cfg.c **** 
  96:Generated_Source\PSoC5/cyfitter_cfg.c **** 
  97:Generated_Source\PSoC5/cyfitter_cfg.c **** 
  98:Generated_Source\PSoC5/cyfitter_cfg.c **** 
  99:Generated_Source\PSoC5/cyfitter_cfg.c **** /* Clock startup error codes                                                   */
 100:Generated_Source\PSoC5/cyfitter_cfg.c **** #define CYCLOCKSTART_NO_ERROR    0u
 101:Generated_Source\PSoC5/cyfitter_cfg.c **** #define CYCLOCKSTART_XTAL_ERROR  1u
 102:Generated_Source\PSoC5/cyfitter_cfg.c **** #define CYCLOCKSTART_32KHZ_ERROR 2u
 103:Generated_Source\PSoC5/cyfitter_cfg.c **** #define CYCLOCKSTART_PLL_ERROR   3u
 104:Generated_Source\PSoC5/cyfitter_cfg.c **** #define CYCLOCKSTART_FLL_ERROR   4u
 105:Generated_Source\PSoC5/cyfitter_cfg.c **** #define CYCLOCKSTART_WCO_ERROR   5u
 106:Generated_Source\PSoC5/cyfitter_cfg.c **** 
 107:Generated_Source\PSoC5/cyfitter_cfg.c **** 
 108:Generated_Source\PSoC5/cyfitter_cfg.c **** #ifdef CY_NEED_CYCLOCKSTARTUPERROR
 109:Generated_Source\PSoC5/cyfitter_cfg.c **** /*******************************************************************************
 110:Generated_Source\PSoC5/cyfitter_cfg.c **** * Function Name: CyClockStartupError
 111:Generated_Source\PSoC5/cyfitter_cfg.c **** ********************************************************************************
 112:Generated_Source\PSoC5/cyfitter_cfg.c **** * Summary:
 113:Generated_Source\PSoC5/cyfitter_cfg.c **** *  If an error is encountered during clock configuration (crystal startup error,
 114:Generated_Source\PSoC5/cyfitter_cfg.c **** *  PLL lock error, etc.), the system will end up here.  Unless reimplemented by
 115:Generated_Source\PSoC5/cyfitter_cfg.c **** *  the customer, this function will stop in an infinite loop.
 116:Generated_Source\PSoC5/cyfitter_cfg.c **** *
 117:Generated_Source\PSoC5/cyfitter_cfg.c **** * Parameters:
 118:Generated_Source\PSoC5/cyfitter_cfg.c **** *   void
 119:Generated_Source\PSoC5/cyfitter_cfg.c **** *
 120:Generated_Source\PSoC5/cyfitter_cfg.c **** * Return:
 121:Generated_Source\PSoC5/cyfitter_cfg.c **** *   void
 122:Generated_Source\PSoC5/cyfitter_cfg.c **** *
 123:Generated_Source\PSoC5/cyfitter_cfg.c **** *******************************************************************************/
 124:Generated_Source\PSoC5/cyfitter_cfg.c **** CY_CFG_UNUSED
 125:Generated_Source\PSoC5/cyfitter_cfg.c **** static void CyClockStartupError(uint8 errorCode);
 126:Generated_Source\PSoC5/cyfitter_cfg.c **** CY_CFG_UNUSED
 127:Generated_Source\PSoC5/cyfitter_cfg.c **** static void CyClockStartupError(uint8 errorCode)
 128:Generated_Source\PSoC5/cyfitter_cfg.c **** {
 129:Generated_Source\PSoC5/cyfitter_cfg.c ****     /* To remove the compiler warning if errorCode not used.                */
 130:Generated_Source\PSoC5/cyfitter_cfg.c ****     errorCode = errorCode;
 131:Generated_Source\PSoC5/cyfitter_cfg.c **** 
 132:Generated_Source\PSoC5/cyfitter_cfg.c ****     /* If we have a clock startup error (bad MHz crystal, PLL lock, etc.),  */
 133:Generated_Source\PSoC5/cyfitter_cfg.c ****     /* we will end up here to allow the customer to implement something to  */
 134:Generated_Source\PSoC5/cyfitter_cfg.c ****     /* deal with the clock condition.                                       */
 135:Generated_Source\PSoC5/cyfitter_cfg.c **** 
 136:Generated_Source\PSoC5/cyfitter_cfg.c **** #ifdef CY_CFG_CLOCK_STARTUP_ERROR_CALLBACK
 137:Generated_Source\PSoC5/cyfitter_cfg.c ****     CY_CFG_Clock_Startup_ErrorCallback();
 138:Generated_Source\PSoC5/cyfitter_cfg.c **** #else
 139:Generated_Source\PSoC5/cyfitter_cfg.c ****     /*  If not using CY_CFG_CLOCK_STARTUP_ERROR_CALLBACK, place your clock startup code here. */
 140:Generated_Source\PSoC5/cyfitter_cfg.c ****     /* `#START CyClockStartupError` */
 141:Generated_Source\PSoC5/cyfitter_cfg.c **** 
 142:Generated_Source\PSoC5/cyfitter_cfg.c **** 
 143:Generated_Source\PSoC5/cyfitter_cfg.c **** 
 144:Generated_Source\PSoC5/cyfitter_cfg.c ****     /* `#END` */
ARM GAS  C:\Users\mgnocco\AppData\Local\Temp\cc9OgrOS.s 			page 4


 145:Generated_Source\PSoC5/cyfitter_cfg.c **** 
 146:Generated_Source\PSoC5/cyfitter_cfg.c ****     while(1) {}
 147:Generated_Source\PSoC5/cyfitter_cfg.c **** #endif /* CY_CFG_CLOCK_STARTUP_ERROR_CALLBACK */
 148:Generated_Source\PSoC5/cyfitter_cfg.c **** }
 149:Generated_Source\PSoC5/cyfitter_cfg.c **** #endif
 150:Generated_Source\PSoC5/cyfitter_cfg.c **** 
 151:Generated_Source\PSoC5/cyfitter_cfg.c **** #define CY_CFG_BASE_ADDR_COUNT 24u
 152:Generated_Source\PSoC5/cyfitter_cfg.c **** CYPACKED typedef struct
 153:Generated_Source\PSoC5/cyfitter_cfg.c **** {
 154:Generated_Source\PSoC5/cyfitter_cfg.c **** 	uint8 offset;
 155:Generated_Source\PSoC5/cyfitter_cfg.c **** 	uint8 value;
 156:Generated_Source\PSoC5/cyfitter_cfg.c **** } CYPACKED_ATTR cy_cfg_addrvalue_t;
 157:Generated_Source\PSoC5/cyfitter_cfg.c **** 
 158:Generated_Source\PSoC5/cyfitter_cfg.c **** #define cy_cfg_addr_table ((const uint32 CYFAR *)0x48000000u)
 159:Generated_Source\PSoC5/cyfitter_cfg.c **** #define cy_cfg_data_table ((const cy_cfg_addrvalue_t CYFAR *)0x48000060u)
 160:Generated_Source\PSoC5/cyfitter_cfg.c **** 
 161:Generated_Source\PSoC5/cyfitter_cfg.c **** /* UDB_0_0_0_CONFIG Address: CYDEV_UCFG_B1_P5_U0_BASE Size (bytes): 128 */
 162:Generated_Source\PSoC5/cyfitter_cfg.c **** #define BS_UDB_0_0_0_CONFIG_VAL ((const uint8 CYFAR *)0x480004B0u)
 163:Generated_Source\PSoC5/cyfitter_cfg.c **** 
 164:Generated_Source\PSoC5/cyfitter_cfg.c **** /* IOPINS0_0 Address: CYREG_PRT0_DM0 Size (bytes): 8 */
 165:Generated_Source\PSoC5/cyfitter_cfg.c **** #define BS_IOPINS0_0_VAL ((const uint8 CYFAR *)0x48000530u)
 166:Generated_Source\PSoC5/cyfitter_cfg.c **** 
 167:Generated_Source\PSoC5/cyfitter_cfg.c **** /* IOPINS0_7 Address: CYREG_PRT12_DR Size (bytes): 10 */
 168:Generated_Source\PSoC5/cyfitter_cfg.c **** #define BS_IOPINS0_7_VAL ((const uint8 CYFAR *)0x48000538u)
 169:Generated_Source\PSoC5/cyfitter_cfg.c **** 
 170:Generated_Source\PSoC5/cyfitter_cfg.c **** /* IOPINS0_1 Address: CYREG_PRT1_DM0 Size (bytes): 8 */
 171:Generated_Source\PSoC5/cyfitter_cfg.c **** #define BS_IOPINS0_1_VAL ((const uint8 CYFAR *)0x48000544u)
 172:Generated_Source\PSoC5/cyfitter_cfg.c **** 
 173:Generated_Source\PSoC5/cyfitter_cfg.c **** /* IOPINS0_2 Address: CYREG_PRT2_DM0 Size (bytes): 8 */
 174:Generated_Source\PSoC5/cyfitter_cfg.c **** #define BS_IOPINS0_2_VAL ((const uint8 CYFAR *)0x4800054Cu)
 175:Generated_Source\PSoC5/cyfitter_cfg.c **** 
 176:Generated_Source\PSoC5/cyfitter_cfg.c **** /* IOPINS0_3 Address: CYREG_PRT3_DM0 Size (bytes): 8 */
 177:Generated_Source\PSoC5/cyfitter_cfg.c **** #define BS_IOPINS0_3_VAL ((const uint8 CYFAR *)0x48000554u)
 178:Generated_Source\PSoC5/cyfitter_cfg.c **** 
 179:Generated_Source\PSoC5/cyfitter_cfg.c **** 
 180:Generated_Source\PSoC5/cyfitter_cfg.c **** /*******************************************************************************
 181:Generated_Source\PSoC5/cyfitter_cfg.c **** * Function Name: cfg_write_bytes32
 182:Generated_Source\PSoC5/cyfitter_cfg.c **** ********************************************************************************
 183:Generated_Source\PSoC5/cyfitter_cfg.c **** * Summary:
 184:Generated_Source\PSoC5/cyfitter_cfg.c **** *  This function is used for setting up the chip configuration areas that
 185:Generated_Source\PSoC5/cyfitter_cfg.c **** *  contain relatively sparse data.
 186:Generated_Source\PSoC5/cyfitter_cfg.c **** *
 187:Generated_Source\PSoC5/cyfitter_cfg.c **** * Parameters:
 188:Generated_Source\PSoC5/cyfitter_cfg.c **** *   void
 189:Generated_Source\PSoC5/cyfitter_cfg.c **** *
 190:Generated_Source\PSoC5/cyfitter_cfg.c **** * Return:
 191:Generated_Source\PSoC5/cyfitter_cfg.c **** *   void
 192:Generated_Source\PSoC5/cyfitter_cfg.c **** *
 193:Generated_Source\PSoC5/cyfitter_cfg.c **** *******************************************************************************/
 194:Generated_Source\PSoC5/cyfitter_cfg.c **** static void cfg_write_bytes32(const uint32 addr_table[], const cy_cfg_addrvalue_t data_table[]);
 195:Generated_Source\PSoC5/cyfitter_cfg.c **** static void cfg_write_bytes32(const uint32 addr_table[], const cy_cfg_addrvalue_t data_table[])
 196:Generated_Source\PSoC5/cyfitter_cfg.c **** {
 197:Generated_Source\PSoC5/cyfitter_cfg.c **** 	/* For 32-bit little-endian architectures */
 198:Generated_Source\PSoC5/cyfitter_cfg.c **** 	uint32 i, j = 0u;
 199:Generated_Source\PSoC5/cyfitter_cfg.c **** 	for (i = 0u; i < CY_CFG_BASE_ADDR_COUNT; i++)
 200:Generated_Source\PSoC5/cyfitter_cfg.c **** 	{
 201:Generated_Source\PSoC5/cyfitter_cfg.c **** 		uint32 baseAddr = addr_table[i];
ARM GAS  C:\Users\mgnocco\AppData\Local\Temp\cc9OgrOS.s 			page 5


 202:Generated_Source\PSoC5/cyfitter_cfg.c **** 		uint8 count = (uint8)baseAddr;
 203:Generated_Source\PSoC5/cyfitter_cfg.c **** 		baseAddr &= 0xFFFFFF00u;
 204:Generated_Source\PSoC5/cyfitter_cfg.c **** 		while (count != 0u)
 205:Generated_Source\PSoC5/cyfitter_cfg.c **** 		{
 206:Generated_Source\PSoC5/cyfitter_cfg.c **** 			CY_SET_REG8((void *)(baseAddr + data_table[j].offset), data_table[j].value);
 207:Generated_Source\PSoC5/cyfitter_cfg.c **** 			j++;
 208:Generated_Source\PSoC5/cyfitter_cfg.c **** 			count--;
 209:Generated_Source\PSoC5/cyfitter_cfg.c **** 		}
 210:Generated_Source\PSoC5/cyfitter_cfg.c **** 	}
 211:Generated_Source\PSoC5/cyfitter_cfg.c **** }
 212:Generated_Source\PSoC5/cyfitter_cfg.c **** 
 213:Generated_Source\PSoC5/cyfitter_cfg.c **** /*******************************************************************************
 214:Generated_Source\PSoC5/cyfitter_cfg.c **** * Function Name: ClockSetup
 215:Generated_Source\PSoC5/cyfitter_cfg.c **** ********************************************************************************
 216:Generated_Source\PSoC5/cyfitter_cfg.c **** *
 217:Generated_Source\PSoC5/cyfitter_cfg.c **** * Summary:
 218:Generated_Source\PSoC5/cyfitter_cfg.c **** *  Performs the initialization of all of the clocks in the device based on the
 219:Generated_Source\PSoC5/cyfitter_cfg.c **** *  settings in the Clock tab of the DWR.  This includes enabling the requested
 220:Generated_Source\PSoC5/cyfitter_cfg.c **** *  clocks and setting the necessary dividers to produce the desired frequency. 
 221:Generated_Source\PSoC5/cyfitter_cfg.c **** *
 222:Generated_Source\PSoC5/cyfitter_cfg.c **** * Parameters:
 223:Generated_Source\PSoC5/cyfitter_cfg.c **** *  void
 224:Generated_Source\PSoC5/cyfitter_cfg.c **** *
 225:Generated_Source\PSoC5/cyfitter_cfg.c **** * Return:
 226:Generated_Source\PSoC5/cyfitter_cfg.c **** *  void
 227:Generated_Source\PSoC5/cyfitter_cfg.c **** *
 228:Generated_Source\PSoC5/cyfitter_cfg.c **** *******************************************************************************/
 229:Generated_Source\PSoC5/cyfitter_cfg.c **** static void ClockSetup(void);
 230:Generated_Source\PSoC5/cyfitter_cfg.c **** static void ClockSetup(void)
 231:Generated_Source\PSoC5/cyfitter_cfg.c **** {
 232:Generated_Source\PSoC5/cyfitter_cfg.c **** 	uint32 timeout;
 233:Generated_Source\PSoC5/cyfitter_cfg.c **** 	uint8 pllLock;
 234:Generated_Source\PSoC5/cyfitter_cfg.c **** 
 235:Generated_Source\PSoC5/cyfitter_cfg.c **** 
 236:Generated_Source\PSoC5/cyfitter_cfg.c **** 	/* Configure Digital Clocks based on settings from Clock DWR */
 237:Generated_Source\PSoC5/cyfitter_cfg.c **** 	CY_SET_XTND_REG16((void CYFAR *)(CYREG_CLKDIST_DCFG0_CFG0), 0x000Bu);
 238:Generated_Source\PSoC5/cyfitter_cfg.c **** 	CY_SET_XTND_REG8((void CYFAR *)(CYREG_CLKDIST_DCFG0_CFG0 + 0x2u), 0x18u);
 239:Generated_Source\PSoC5/cyfitter_cfg.c **** 	CY_SET_XTND_REG16((void CYFAR *)(CYREG_CLKDIST_DCFG1_CFG0), 0x0033u);
 240:Generated_Source\PSoC5/cyfitter_cfg.c **** 	CY_SET_XTND_REG8((void CYFAR *)(CYREG_CLKDIST_DCFG1_CFG0 + 0x2u), 0x18u);
 241:Generated_Source\PSoC5/cyfitter_cfg.c **** 
 242:Generated_Source\PSoC5/cyfitter_cfg.c **** 	/* Configure ILO based on settings from Clock DWR */
 243:Generated_Source\PSoC5/cyfitter_cfg.c **** 	CY_SET_XTND_REG8((void CYFAR *)(CYREG_SLOWCLK_ILO_CR0), 0x02u);
 244:Generated_Source\PSoC5/cyfitter_cfg.c **** 	CY_SET_XTND_REG8((void CYFAR *)(CYREG_CLKDIST_CR), 0x08u);
 245:Generated_Source\PSoC5/cyfitter_cfg.c **** 
 246:Generated_Source\PSoC5/cyfitter_cfg.c **** 	/* Configure IMO based on settings from Clock DWR */
 247:Generated_Source\PSoC5/cyfitter_cfg.c **** 	CY_SET_XTND_REG8((void CYFAR *)(CYREG_FASTCLK_IMO_CR), 0x03u);
 248:Generated_Source\PSoC5/cyfitter_cfg.c **** 	CY_SET_XTND_REG8((void CYFAR *)(CYREG_IMO_TR1), (CY_GET_XTND_REG8((void CYFAR *)CYREG_FLSHID_CUST_
 249:Generated_Source\PSoC5/cyfitter_cfg.c **** 
 250:Generated_Source\PSoC5/cyfitter_cfg.c **** 	/* Configure PLL based on settings from Clock DWR */
 251:Generated_Source\PSoC5/cyfitter_cfg.c **** 	CY_SET_XTND_REG16((void CYFAR *)(CYREG_FASTCLK_PLL_P), 0x0008u);
 252:Generated_Source\PSoC5/cyfitter_cfg.c **** 	CY_SET_XTND_REG16((void CYFAR *)(CYREG_FASTCLK_PLL_CFG0), 0x1251u);
 253:Generated_Source\PSoC5/cyfitter_cfg.c **** 	/* Wait up to 250us for the PLL to lock */
 254:Generated_Source\PSoC5/cyfitter_cfg.c **** 	pllLock = 0u;
 255:Generated_Source\PSoC5/cyfitter_cfg.c **** 	for (timeout = 250u / 10u; (timeout > 0u) && (pllLock != 0x03u); timeout--)
 256:Generated_Source\PSoC5/cyfitter_cfg.c **** 	{ 
 257:Generated_Source\PSoC5/cyfitter_cfg.c **** 		pllLock = 0x03u & ((uint8)((uint8)pllLock << 1) | ((CY_GET_XTND_REG8((void CYFAR *)CYREG_FASTCLK_
 258:Generated_Source\PSoC5/cyfitter_cfg.c **** 		CyDelayCycles(10u * 48u); /* Delay 10us based on 48MHz clock */
ARM GAS  C:\Users\mgnocco\AppData\Local\Temp\cc9OgrOS.s 			page 6


 259:Generated_Source\PSoC5/cyfitter_cfg.c **** 	}
 260:Generated_Source\PSoC5/cyfitter_cfg.c **** 	/* If we ran out of time the PLL didn't lock so go to the error function */
 261:Generated_Source\PSoC5/cyfitter_cfg.c **** 	if (timeout == 0u)
 262:Generated_Source\PSoC5/cyfitter_cfg.c **** 	{
 263:Generated_Source\PSoC5/cyfitter_cfg.c **** 		CyClockStartupError(CYCLOCKSTART_PLL_ERROR);
 264:Generated_Source\PSoC5/cyfitter_cfg.c **** 	}
 265:Generated_Source\PSoC5/cyfitter_cfg.c **** 
 266:Generated_Source\PSoC5/cyfitter_cfg.c **** 	/* Configure Bus/Master Clock based on settings from Clock DWR */
 267:Generated_Source\PSoC5/cyfitter_cfg.c **** 	CY_SET_XTND_REG16((void CYFAR *)(CYREG_CLKDIST_MSTR0), 0x0100u);
 268:Generated_Source\PSoC5/cyfitter_cfg.c **** 	CY_SET_XTND_REG8((void CYFAR *)(CYREG_CLKDIST_MSTR0), 0x07u);
 269:Generated_Source\PSoC5/cyfitter_cfg.c **** 	CY_SET_XTND_REG8((void CYFAR *)(CYREG_CLKDIST_BCFG0), 0x00u);
 270:Generated_Source\PSoC5/cyfitter_cfg.c **** 	CY_SET_XTND_REG8((void CYFAR *)(CYREG_CLKDIST_BCFG2), 0x48u);
 271:Generated_Source\PSoC5/cyfitter_cfg.c **** 	CY_SET_XTND_REG8((void CYFAR *)(CYREG_CLKDIST_MSTR0), 0x00u);
 272:Generated_Source\PSoC5/cyfitter_cfg.c **** 	CY_SET_XTND_REG8((void CYFAR *)(CYREG_CLKDIST_LD), 0x02u);
 273:Generated_Source\PSoC5/cyfitter_cfg.c **** 
 274:Generated_Source\PSoC5/cyfitter_cfg.c **** 	CY_SET_XTND_REG8((void CYFAR *)(CYREG_PM_ACT_CFG2), ((CY_GET_XTND_REG8((void CYFAR *)CYREG_PM_ACT_
 275:Generated_Source\PSoC5/cyfitter_cfg.c **** }
 276:Generated_Source\PSoC5/cyfitter_cfg.c **** 
 277:Generated_Source\PSoC5/cyfitter_cfg.c **** 
 278:Generated_Source\PSoC5/cyfitter_cfg.c **** /* Analog API Functions */
 279:Generated_Source\PSoC5/cyfitter_cfg.c **** 
 280:Generated_Source\PSoC5/cyfitter_cfg.c **** 
 281:Generated_Source\PSoC5/cyfitter_cfg.c **** /*******************************************************************************
 282:Generated_Source\PSoC5/cyfitter_cfg.c **** * Function Name: AnalogSetDefault
 283:Generated_Source\PSoC5/cyfitter_cfg.c **** ********************************************************************************
 284:Generated_Source\PSoC5/cyfitter_cfg.c **** *
 285:Generated_Source\PSoC5/cyfitter_cfg.c **** * Summary:
 286:Generated_Source\PSoC5/cyfitter_cfg.c **** *  Sets up the analog portions of the chip to default values based on chip
 287:Generated_Source\PSoC5/cyfitter_cfg.c **** *  configuration options from the project.
 288:Generated_Source\PSoC5/cyfitter_cfg.c **** *
 289:Generated_Source\PSoC5/cyfitter_cfg.c **** * Parameters:
 290:Generated_Source\PSoC5/cyfitter_cfg.c **** *  void
 291:Generated_Source\PSoC5/cyfitter_cfg.c **** *
 292:Generated_Source\PSoC5/cyfitter_cfg.c **** * Return:
 293:Generated_Source\PSoC5/cyfitter_cfg.c **** *  void
 294:Generated_Source\PSoC5/cyfitter_cfg.c **** *
 295:Generated_Source\PSoC5/cyfitter_cfg.c **** *******************************************************************************/
 296:Generated_Source\PSoC5/cyfitter_cfg.c **** static void AnalogSetDefault(void);
 297:Generated_Source\PSoC5/cyfitter_cfg.c **** static void AnalogSetDefault(void)
 298:Generated_Source\PSoC5/cyfitter_cfg.c **** {
 299:Generated_Source\PSoC5/cyfitter_cfg.c **** 	uint8 bg_xover_inl_trim = CY_GET_XTND_REG8((void CYFAR *)(CYREG_FLSHID_MFG_CFG_BG_XOVER_INL_TRIM +
 300:Generated_Source\PSoC5/cyfitter_cfg.c **** 	CY_SET_XTND_REG8((void CYFAR *)(CYREG_BG_DFT0), (bg_xover_inl_trim & 0x07u));
 301:Generated_Source\PSoC5/cyfitter_cfg.c **** 	CY_SET_XTND_REG8((void CYFAR *)(CYREG_BG_DFT1), ((bg_xover_inl_trim >> 4) & 0x0Fu));
 302:Generated_Source\PSoC5/cyfitter_cfg.c **** 	CY_SET_XTND_REG8((void CYFAR *)CYREG_PUMP_CR0, 0x44u);
 303:Generated_Source\PSoC5/cyfitter_cfg.c **** }
 304:Generated_Source\PSoC5/cyfitter_cfg.c **** 
 305:Generated_Source\PSoC5/cyfitter_cfg.c **** 
 306:Generated_Source\PSoC5/cyfitter_cfg.c **** /*******************************************************************************
 307:Generated_Source\PSoC5/cyfitter_cfg.c **** * Function Name: SetAnalogRoutingPumps
 308:Generated_Source\PSoC5/cyfitter_cfg.c **** ********************************************************************************
 309:Generated_Source\PSoC5/cyfitter_cfg.c **** *
 310:Generated_Source\PSoC5/cyfitter_cfg.c **** * Summary:
 311:Generated_Source\PSoC5/cyfitter_cfg.c **** * Enables or disables the analog pumps feeding analog routing switches.
 312:Generated_Source\PSoC5/cyfitter_cfg.c **** * Intended to be called at startup, based on the Vdda system configuration;
 313:Generated_Source\PSoC5/cyfitter_cfg.c **** * may be called during operation when the user informs us that the Vdda voltage
 314:Generated_Source\PSoC5/cyfitter_cfg.c **** * crossed the pump threshold.
 315:Generated_Source\PSoC5/cyfitter_cfg.c **** *
ARM GAS  C:\Users\mgnocco\AppData\Local\Temp\cc9OgrOS.s 			page 7


 316:Generated_Source\PSoC5/cyfitter_cfg.c **** * Parameters:
 317:Generated_Source\PSoC5/cyfitter_cfg.c **** *  enabled - 1 to enable the pumps, 0 to disable the pumps
 318:Generated_Source\PSoC5/cyfitter_cfg.c **** *
 319:Generated_Source\PSoC5/cyfitter_cfg.c **** * Return:
 320:Generated_Source\PSoC5/cyfitter_cfg.c **** *  void
 321:Generated_Source\PSoC5/cyfitter_cfg.c **** *
 322:Generated_Source\PSoC5/cyfitter_cfg.c **** *******************************************************************************/
 323:Generated_Source\PSoC5/cyfitter_cfg.c **** void SetAnalogRoutingPumps(uint8 enabled)
 324:Generated_Source\PSoC5/cyfitter_cfg.c **** {
  28              		.loc 1 324 0
  29              		.cfi_startproc
  30              		@ args = 0, pretend = 0, frame = 0
  31              		@ frame_needed = 0, uses_anonymous_args = 0
  32              		@ link register save eliminated.
  33              	.LVL0:
 325:Generated_Source\PSoC5/cyfitter_cfg.c **** 	uint8 regValue = CY_GET_XTND_REG8((void CYFAR *)CYREG_PUMP_CR0);
  34              		.loc 1 325 0
  35 0000 024A     		ldr	r2, .L2
  36 0002 1378     		ldrb	r3, [r2]	@ zero_extendqisi2
  37 0004 DBB2     		uxtb	r3, r3
  38              	.LVL1:
 326:Generated_Source\PSoC5/cyfitter_cfg.c **** 	if (enabled != 0u)
 327:Generated_Source\PSoC5/cyfitter_cfg.c **** 	{
 328:Generated_Source\PSoC5/cyfitter_cfg.c **** 		regValue |= 0x00u;
 329:Generated_Source\PSoC5/cyfitter_cfg.c **** 	}
 330:Generated_Source\PSoC5/cyfitter_cfg.c **** 	else
 331:Generated_Source\PSoC5/cyfitter_cfg.c **** 	{
 332:Generated_Source\PSoC5/cyfitter_cfg.c **** 		regValue &= (uint8)~0x00u;
 333:Generated_Source\PSoC5/cyfitter_cfg.c **** 	}
 334:Generated_Source\PSoC5/cyfitter_cfg.c **** 	CY_SET_XTND_REG8((void CYFAR *)CYREG_PUMP_CR0, regValue);
  39              		.loc 1 334 0
  40 0006 1370     		strb	r3, [r2]
  41 0008 7047     		bx	lr
  42              	.L3:
  43 000a 00BF     		.align	2
  44              	.L2:
  45 000c 76580040 		.word	1073764470
  46              		.cfi_endproc
  47              	.LFE7:
  48              		.size	SetAnalogRoutingPumps, .-SetAnalogRoutingPumps
  49              		.section	.text.cyfitter_cfg,"ax",%progbits
  50              		.align	1
  51              		.global	cyfitter_cfg
  52              		.thumb
  53              		.thumb_func
  54              		.type	cyfitter_cfg, %function
  55              	cyfitter_cfg:
  56              	.LFB8:
 335:Generated_Source\PSoC5/cyfitter_cfg.c **** }
 336:Generated_Source\PSoC5/cyfitter_cfg.c **** 
 337:Generated_Source\PSoC5/cyfitter_cfg.c **** 
 338:Generated_Source\PSoC5/cyfitter_cfg.c **** 
 339:Generated_Source\PSoC5/cyfitter_cfg.c **** 
 340:Generated_Source\PSoC5/cyfitter_cfg.c **** /*******************************************************************************
 341:Generated_Source\PSoC5/cyfitter_cfg.c **** * Function Name: cyfitter_cfg
 342:Generated_Source\PSoC5/cyfitter_cfg.c **** ********************************************************************************
 343:Generated_Source\PSoC5/cyfitter_cfg.c **** * Summary:
ARM GAS  C:\Users\mgnocco\AppData\Local\Temp\cc9OgrOS.s 			page 8


 344:Generated_Source\PSoC5/cyfitter_cfg.c **** *  This function is called by the start-up code for the selected device. It
 345:Generated_Source\PSoC5/cyfitter_cfg.c **** *  performs all of the necessary device configuration based on the design
 346:Generated_Source\PSoC5/cyfitter_cfg.c **** *  settings.  This includes settings from the Design Wide Resources (DWR) such
 347:Generated_Source\PSoC5/cyfitter_cfg.c **** *  as Clocks and Pins as well as any component configuration that is necessary.
 348:Generated_Source\PSoC5/cyfitter_cfg.c **** *
 349:Generated_Source\PSoC5/cyfitter_cfg.c **** * Parameters:
 350:Generated_Source\PSoC5/cyfitter_cfg.c **** *   void
 351:Generated_Source\PSoC5/cyfitter_cfg.c **** *
 352:Generated_Source\PSoC5/cyfitter_cfg.c **** * Return:
 353:Generated_Source\PSoC5/cyfitter_cfg.c **** *   void
 354:Generated_Source\PSoC5/cyfitter_cfg.c **** *
 355:Generated_Source\PSoC5/cyfitter_cfg.c **** *******************************************************************************/
 356:Generated_Source\PSoC5/cyfitter_cfg.c **** 
 357:Generated_Source\PSoC5/cyfitter_cfg.c **** void cyfitter_cfg(void)
 358:Generated_Source\PSoC5/cyfitter_cfg.c **** {
  57              		.loc 1 358 0
  58              		.cfi_startproc
  59              		@ args = 0, pretend = 0, frame = 0
  60              		@ frame_needed = 0, uses_anonymous_args = 0
  61 0000 F8B5     		push	{r3, r4, r5, r6, r7, lr}
  62              		.cfi_def_cfa_offset 24
  63              		.cfi_offset 3, -24
  64              		.cfi_offset 4, -20
  65              		.cfi_offset 5, -16
  66              		.cfi_offset 6, -12
  67              		.cfi_offset 7, -8
  68              		.cfi_offset 14, -4
 359:Generated_Source\PSoC5/cyfitter_cfg.c **** #ifdef CYGlobalIntDisable
 360:Generated_Source\PSoC5/cyfitter_cfg.c **** 	/* Disable interrupts by default. Let user enable if/when they want. */
 361:Generated_Source\PSoC5/cyfitter_cfg.c **** 	CYGlobalIntDisable
  69              		.loc 1 361 0
  70              		.syntax unified
  71              	@ 361 "Generated_Source\PSoC5\cyfitter_cfg.c" 1
  72 0002 72B6     		CPSID   i
  73              	@ 0 "" 2
 362:Generated_Source\PSoC5/cyfitter_cfg.c **** #endif
 363:Generated_Source\PSoC5/cyfitter_cfg.c **** 
 364:Generated_Source\PSoC5/cyfitter_cfg.c **** 	/* Enable/Disable Debug functionality based on settings from System DWR */
 365:Generated_Source\PSoC5/cyfitter_cfg.c **** 	CY_SET_XTND_REG8((void CYFAR *)CYREG_MLOGIC_DEBUG, (CY_GET_XTND_REG8((void CYFAR *)CYREG_MLOGIC_DE
  74              		.loc 1 365 0
  75              		.thumb
  76              		.syntax unified
  77 0004 644A     		ldr	r2, .L20
  78              	.LBB48:
  79              	.LBB49:
 366:Generated_Source\PSoC5/cyfitter_cfg.c **** 
 367:Generated_Source\PSoC5/cyfitter_cfg.c **** 	{
 368:Generated_Source\PSoC5/cyfitter_cfg.c **** 
 369:Generated_Source\PSoC5/cyfitter_cfg.c **** 		CYPACKED typedef struct {
 370:Generated_Source\PSoC5/cyfitter_cfg.c **** 			void CYFAR *address;
 371:Generated_Source\PSoC5/cyfitter_cfg.c **** 			uint16 size;
 372:Generated_Source\PSoC5/cyfitter_cfg.c **** 		} CYPACKED_ATTR cfg_memset_t;
 373:Generated_Source\PSoC5/cyfitter_cfg.c **** 
 374:Generated_Source\PSoC5/cyfitter_cfg.c **** 
 375:Generated_Source\PSoC5/cyfitter_cfg.c **** 		CYPACKED typedef struct {
 376:Generated_Source\PSoC5/cyfitter_cfg.c **** 			void CYFAR *dest;
 377:Generated_Source\PSoC5/cyfitter_cfg.c **** 			const void CYFAR *src;
ARM GAS  C:\Users\mgnocco\AppData\Local\Temp\cc9OgrOS.s 			page 9


 378:Generated_Source\PSoC5/cyfitter_cfg.c **** 			uint16 size;
 379:Generated_Source\PSoC5/cyfitter_cfg.c **** 		} CYPACKED_ATTR cfg_memcpy_t;
 380:Generated_Source\PSoC5/cyfitter_cfg.c **** 
 381:Generated_Source\PSoC5/cyfitter_cfg.c **** 		static const cfg_memset_t CYCODE cfg_memset_list[] = {
 382:Generated_Source\PSoC5/cyfitter_cfg.c **** 			/* address, size */
 383:Generated_Source\PSoC5/cyfitter_cfg.c **** 			{(void CYFAR *)(CYREG_PRT4_DR), 48u},
 384:Generated_Source\PSoC5/cyfitter_cfg.c **** 			{(void CYFAR *)(CYREG_PRT15_DR), 16u},
 385:Generated_Source\PSoC5/cyfitter_cfg.c **** 			{(void CYFAR *)(CYDEV_UCFG_B0_P0_U0_BASE), 4096u},
 386:Generated_Source\PSoC5/cyfitter_cfg.c **** 			{(void CYFAR *)(CYDEV_UCFG_B1_P2_U0_BASE), 1536u},
 387:Generated_Source\PSoC5/cyfitter_cfg.c **** 			{(void CYFAR *)(CYDEV_UCFG_B1_P5_U1_BASE), 384u},
 388:Generated_Source\PSoC5/cyfitter_cfg.c **** 			{(void CYFAR *)(CYDEV_UCFG_DSI0_BASE), 2560u},
 389:Generated_Source\PSoC5/cyfitter_cfg.c **** 			{(void CYFAR *)(CYDEV_UCFG_DSI12_BASE), 512u},
 390:Generated_Source\PSoC5/cyfitter_cfg.c **** 			{(void CYFAR *)(CYREG_BCTL0_MDCLK_EN), 32u},
 391:Generated_Source\PSoC5/cyfitter_cfg.c **** 		};
 392:Generated_Source\PSoC5/cyfitter_cfg.c **** 
 393:Generated_Source\PSoC5/cyfitter_cfg.c **** 		static const cfg_memcpy_t CYCODE cfg_memcpy_list [] = {
 394:Generated_Source\PSoC5/cyfitter_cfg.c **** 			/* dest, src, size */
 395:Generated_Source\PSoC5/cyfitter_cfg.c **** 			{(void CYFAR *)(CYDEV_UCFG_B1_P5_U0_BASE), BS_UDB_0_0_0_CONFIG_VAL, 128u},
 396:Generated_Source\PSoC5/cyfitter_cfg.c **** 		};
 397:Generated_Source\PSoC5/cyfitter_cfg.c **** 
 398:Generated_Source\PSoC5/cyfitter_cfg.c **** 		uint8 CYDATA i;
 399:Generated_Source\PSoC5/cyfitter_cfg.c **** 
 400:Generated_Source\PSoC5/cyfitter_cfg.c **** 		/* Zero out critical memory blocks before beginning configuration */
 401:Generated_Source\PSoC5/cyfitter_cfg.c **** 		for (i = 0u; i < (sizeof(cfg_memset_list)/sizeof(cfg_memset_list[0])); i++)
 402:Generated_Source\PSoC5/cyfitter_cfg.c **** 		{
 403:Generated_Source\PSoC5/cyfitter_cfg.c **** 			const cfg_memset_t CYCODE * CYDATA ms = &cfg_memset_list[i];
 404:Generated_Source\PSoC5/cyfitter_cfg.c **** 			CYMEMZERO(ms->address, (size_t)(uint32)(ms->size));
  80              		.loc 1 404 0
  81 0006 654D     		ldr	r5, .L20+4
  82              	.LBE49:
  83              	.LBE48:
 365:Generated_Source\PSoC5/cyfitter_cfg.c **** 
  84              		.loc 1 365 0
  85 0008 1378     		ldrb	r3, [r2]	@ zero_extendqisi2
  86 000a 0024     		movs	r4, #0
  87 000c 43F00403 		orr	r3, r3, #4
  88 0010 1370     		strb	r3, [r2]
  89              	.LVL2:
  90              	.LBB64:
  91              	.LBB52:
  92              		.loc 1 404 0
  93 0012 0626     		movs	r6, #6
  94              	.LVL3:
  95              	.L5:
  96              		.loc 1 404 0 is_stmt 0 discriminator 3
  97 0014 06FB0453 		mla	r3, r6, r4, r5
  98              	.LBB50:
  99              	.LBB51:
  79:Generated_Source\PSoC5/cyfitter_cfg.c **** }
 100              		.loc 1 79 0 is_stmt 1 discriminator 3
 101 0018 0021     		movs	r1, #0
 102 001a 9A88     		ldrh	r2, [r3, #4]	@ unaligned
 103 001c 1868     		ldr	r0, [r3]	@ unaligned
 104 001e 0134     		adds	r4, r4, #1
 105              	.LVL4:
 106 0020 FFF7FEFF 		bl	memset
 107              	.LVL5:
ARM GAS  C:\Users\mgnocco\AppData\Local\Temp\cc9OgrOS.s 			page 10


 108              	.LBE51:
 109              	.LBE50:
 110              	.LBE52:
 401:Generated_Source\PSoC5/cyfitter_cfg.c **** 		{
 111              		.loc 1 401 0 discriminator 3
 112 0024 082C     		cmp	r4, #8
 113 0026 F5D1     		bne	.L5
 114              	.LVL6:
 115              	.LBB53:
 116              	.LBB54:
 117              	.LBB55:
  86:Generated_Source\PSoC5/cyfitter_cfg.c **** }
 118              		.loc 1 86 0 discriminator 3
 119 0028 8022     		movs	r2, #128
 120 002a 5D49     		ldr	r1, .L20+8
 121 002c 5D48     		ldr	r0, .L20+12
 122 002e FFF7FEFF 		bl	memcpy
 123              	.LVL7:
 124              	.LBE55:
 125              	.LBE54:
 126              	.LBE53:
 127              	.LBB58:
 128              	.LBB59:
 199:Generated_Source\PSoC5/cyfitter_cfg.c **** 	{
 129              		.loc 1 199 0 discriminator 3
 130 0032 5D4D     		ldr	r5, .L20+16
 131              	.LBE59:
 132              	.LBE58:
 133              	.LBB62:
 134              	.LBB57:
 135              	.LBB56:
  86:Generated_Source\PSoC5/cyfitter_cfg.c **** }
 136              		.loc 1 86 0 discriminator 3
 137 0034 5D48     		ldr	r0, .L20+20
 138 0036 0024     		movs	r4, #0
 139              	.LVL8:
 140              	.L8:
 141              	.LBE56:
 142              	.LBE57:
 143              	.LBE62:
 144              	.LBB63:
 145              	.LBB61:
 146              	.LBB60:
 201:Generated_Source\PSoC5/cyfitter_cfg.c **** 		uint8 count = (uint8)baseAddr;
 147              		.loc 1 201 0
 148 0038 50F8041F 		ldr	r1, [r0, #4]!
 149              	.LVL9:
 150 003c 04F11053 		add	r3, r4, #603979776
 151 0040 03F13002 		add	r2, r3, #48
 203:Generated_Source\PSoC5/cyfitter_cfg.c **** 		while (count != 0u)
 152              		.loc 1 203 0
 153 0044 21F0FF06 		bic	r6, r1, #255
 154              	.LVL10:
 155 0048 3133     		adds	r3, r3, #49
 156 004a C9B2     		uxtb	r1, r1
 157 004c 0B44     		add	r3, r3, r1
 158 004e 5200     		lsls	r2, r2, #1
ARM GAS  C:\Users\mgnocco\AppData\Local\Temp\cc9OgrOS.s 			page 11


 159 0050 5B00     		lsls	r3, r3, #1
 160              	.LVL11:
 161              	.L6:
 162 0052 0232     		adds	r2, r2, #2
 204:Generated_Source\PSoC5/cyfitter_cfg.c **** 		{
 163              		.loc 1 204 0
 164 0054 9342     		cmp	r3, r2
 165 0056 06D0     		beq	.L19
 206:Generated_Source\PSoC5/cyfitter_cfg.c **** 			j++;
 166              		.loc 1 206 0
 167 0058 12F8027C 		ldrb	r7, [r2, #-2]	@ zero_extendqisi2
 168 005c 12F801EC 		ldrb	lr, [r2, #-1]	@ zero_extendqisi2
 169 0060 07F806E0 		strb	lr, [r7, r6]
 170 0064 F5E7     		b	.L6
 171              	.L19:
 172              	.LBE60:
 199:Generated_Source\PSoC5/cyfitter_cfg.c **** 	{
 173              		.loc 1 199 0
 174 0066 A842     		cmp	r0, r5
 175 0068 0C44     		add	r4, r4, r1
 176              	.LVL12:
 177 006a E5D1     		bne	.L8
 178              	.LVL13:
 179              	.LBE61:
 180              	.LBE63:
 405:Generated_Source\PSoC5/cyfitter_cfg.c **** 		}
 406:Generated_Source\PSoC5/cyfitter_cfg.c **** 
 407:Generated_Source\PSoC5/cyfitter_cfg.c **** 		/* Copy device configuration data into registers */
 408:Generated_Source\PSoC5/cyfitter_cfg.c **** 		for (i = 0u; i < (sizeof(cfg_memcpy_list)/sizeof(cfg_memcpy_list[0])); i++)
 409:Generated_Source\PSoC5/cyfitter_cfg.c **** 		{
 410:Generated_Source\PSoC5/cyfitter_cfg.c **** 			const cfg_memcpy_t CYCODE * CYDATA mc = &cfg_memcpy_list[i];
 411:Generated_Source\PSoC5/cyfitter_cfg.c **** 			void * CYDATA destPtr = mc->dest;
 412:Generated_Source\PSoC5/cyfitter_cfg.c **** 			const void * CYDATA srcPtr = mc->src;
 413:Generated_Source\PSoC5/cyfitter_cfg.c **** 			uint16 CYDATA numBytes = mc->size;
 414:Generated_Source\PSoC5/cyfitter_cfg.c **** 			CYCONFIGCPY(destPtr, srcPtr, numBytes);
 415:Generated_Source\PSoC5/cyfitter_cfg.c **** 		}
 416:Generated_Source\PSoC5/cyfitter_cfg.c **** 
 417:Generated_Source\PSoC5/cyfitter_cfg.c **** 		cfg_write_bytes32(cy_cfg_addr_table, cy_cfg_data_table);
 418:Generated_Source\PSoC5/cyfitter_cfg.c **** 
 419:Generated_Source\PSoC5/cyfitter_cfg.c **** 		/* Enable digital routing */
 420:Generated_Source\PSoC5/cyfitter_cfg.c **** 		CY_SET_XTND_REG8((void CYFAR *)CYREG_BCTL0_BANK_CTL, CY_GET_XTND_REG8((void CYFAR *)CYREG_BCTL0_B
 181              		.loc 1 420 0
 182 006c 504A     		ldr	r2, .L20+24
 421:Generated_Source\PSoC5/cyfitter_cfg.c **** 		CY_SET_XTND_REG8((void CYFAR *)CYREG_BCTL1_BANK_CTL, CY_GET_XTND_REG8((void CYFAR *)CYREG_BCTL1_B
 422:Generated_Source\PSoC5/cyfitter_cfg.c **** 
 423:Generated_Source\PSoC5/cyfitter_cfg.c **** 		/* Enable UDB array */
 424:Generated_Source\PSoC5/cyfitter_cfg.c **** 		CY_SET_XTND_REG8((void CYFAR *)CYREG_PM_ACT_CFG0, CY_GET_XTND_REG8((void CYFAR *)CYREG_PM_ACT_CFG
 183              		.loc 1 424 0
 184 006e 514C     		ldr	r4, .L20+28
 420:Generated_Source\PSoC5/cyfitter_cfg.c **** 		CY_SET_XTND_REG8((void CYFAR *)CYREG_BCTL1_BANK_CTL, CY_GET_XTND_REG8((void CYFAR *)CYREG_BCTL1_B
 185              		.loc 1 420 0
 186 0070 1378     		ldrb	r3, [r2]	@ zero_extendqisi2
 187              	.LBE64:
 188              	.LBB65:
 189              	.LBB66:
  86:Generated_Source\PSoC5/cyfitter_cfg.c **** }
 190              		.loc 1 86 0
ARM GAS  C:\Users\mgnocco\AppData\Local\Temp\cc9OgrOS.s 			page 12


 191 0072 514D     		ldr	r5, .L20+32
 192              	.LBE66:
 193              	.LBE65:
 194              	.LBB68:
 420:Generated_Source\PSoC5/cyfitter_cfg.c **** 		CY_SET_XTND_REG8((void CYFAR *)CYREG_BCTL1_BANK_CTL, CY_GET_XTND_REG8((void CYFAR *)CYREG_BCTL1_B
 195              		.loc 1 420 0
 196 0074 43F00203 		orr	r3, r3, #2
 197 0078 1370     		strb	r3, [r2]
 421:Generated_Source\PSoC5/cyfitter_cfg.c **** 		CY_SET_XTND_REG8((void CYFAR *)CYREG_BCTL1_BANK_CTL, CY_GET_XTND_REG8((void CYFAR *)CYREG_BCTL1_B
 198              		.loc 1 421 0
 199 007a 137C     		ldrb	r3, [r2, #16]	@ zero_extendqisi2
 200              	.LBE68:
 201              	.LBB69:
 202              	.LBB70:
 257:Generated_Source\PSoC5/cyfitter_cfg.c **** 		CyDelayCycles(10u * 48u); /* Delay 10us based on 48MHz clock */
 203              		.loc 1 257 0
 204 007c 4F4F     		ldr	r7, .L20+36
 205              	.LBE70:
 206              	.LBE69:
 207              	.LBB75:
 421:Generated_Source\PSoC5/cyfitter_cfg.c **** 
 208              		.loc 1 421 0
 209 007e 43F00203 		orr	r3, r3, #2
 210 0082 1374     		strb	r3, [r2, #16]
 211              		.loc 1 424 0
 212 0084 2378     		ldrb	r3, [r4]	@ zero_extendqisi2
 425:Generated_Source\PSoC5/cyfitter_cfg.c **** 		CY_SET_XTND_REG8((void CYFAR *)CYREG_PM_AVAIL_CR2, CY_GET_XTND_REG8((void CYFAR *)CYREG_PM_AVAIL_
 213              		.loc 1 425 0
 214 0086 A2F58632 		sub	r2, r2, #68608
 424:Generated_Source\PSoC5/cyfitter_cfg.c **** 		CY_SET_XTND_REG8((void CYFAR *)CYREG_PM_AVAIL_CR2, CY_GET_XTND_REG8((void CYFAR *)CYREG_PM_AVAIL_
 215              		.loc 1 424 0
 216 008a 43F04003 		orr	r3, r3, #64
 217 008e 2370     		strb	r3, [r4]
 218              		.loc 1 425 0
 219 0090 413A     		subs	r2, r2, #65
 220 0092 1378     		ldrb	r3, [r2]	@ zero_extendqisi2
 221              	.LBE75:
 222              	.LBB76:
 223              	.LBB71:
 252:Generated_Source\PSoC5/cyfitter_cfg.c **** 	/* Wait up to 250us for the PLL to lock */
 224              		.loc 1 252 0
 225 0094 1926     		movs	r6, #25
 226              	.LBE71:
 227              	.LBE76:
 228              	.LBB77:
 229              		.loc 1 425 0
 230 0096 43F01003 		orr	r3, r3, #16
 231 009a 1370     		strb	r3, [r2]
 232              	.LVL14:
 233              	.LBE77:
 234              	.LBB78:
 235              	.LBB79:
  86:Generated_Source\PSoC5/cyfitter_cfg.c **** }
 236              		.loc 1 86 0
 237 009c 484B     		ldr	r3, .L20+40
 238 009e 03CB     		ldmia	r3!, {r0, r1}
 239 00a0 C2F8400D 		str	r0, [r2, #3392]	@ unaligned
ARM GAS  C:\Users\mgnocco\AppData\Local\Temp\cc9OgrOS.s 			page 13


 240 00a4 C2F8441D 		str	r1, [r2, #3396]	@ unaligned
 241              	.LVL15:
 242              	.LBE79:
 243              	.LBE78:
 244              	.LBB80:
 245              	.LBB67:
 246 00a8 93E80700 		ldmia	r3, {r0, r1, r2}
 247 00ac 03C5     		stmia	r5!, {r0, r1}
 248 00ae 2A80     		strh	r2, [r5]	@ movhi
 249              	.LVL16:
 250              	.LBE67:
 251              	.LBE80:
 252              	.LBB81:
 253              	.LBB82:
 254 00b0 444A     		ldr	r2, .L20+44
 255 00b2 0C33     		adds	r3, r3, #12
 256 00b4 03CB     		ldmia	r3!, {r0, r1}
 257 00b6 1060     		str	r0, [r2]	@ unaligned
 258 00b8 5160     		str	r1, [r2, #4]	@ unaligned
 259              	.LVL17:
 260              	.LBE82:
 261              	.LBE81:
 262              	.LBB83:
 263              	.LBB84:
 264 00ba 03CB     		ldmia	r3!, {r0, r1}
 265 00bc 1061     		str	r0, [r2, #16]	@ unaligned
 266 00be 5161     		str	r1, [r2, #20]	@ unaligned
 267              	.LVL18:
 268              	.LBE84:
 269              	.LBE83:
 270              	.LBB85:
 271              	.LBB86:
 272 00c0 03CB     		ldmia	r3!, {r0, r1}
 273              	.LBE86:
 274              	.LBE85:
 426:Generated_Source\PSoC5/cyfitter_cfg.c **** 	}
 427:Generated_Source\PSoC5/cyfitter_cfg.c **** 
 428:Generated_Source\PSoC5/cyfitter_cfg.c **** 
 429:Generated_Source\PSoC5/cyfitter_cfg.c **** 	/* Perform second pass device configuration. These items must be configured in specific order afte
 430:Generated_Source\PSoC5/cyfitter_cfg.c **** 	CYCONFIGCPY((void CYFAR *)(CYREG_PRT0_DM0), (const void CYFAR *)(BS_IOPINS0_0_VAL), 8u);
 431:Generated_Source\PSoC5/cyfitter_cfg.c **** 	CYCONFIGCPY((void CYFAR *)(CYREG_PRT12_DR), (const void CYFAR *)(BS_IOPINS0_7_VAL), 10u);
 432:Generated_Source\PSoC5/cyfitter_cfg.c **** 	CYCONFIGCPY((void CYFAR *)(CYREG_PRT1_DM0), (const void CYFAR *)(BS_IOPINS0_1_VAL), 8u);
 433:Generated_Source\PSoC5/cyfitter_cfg.c **** 	CYCONFIGCPY((void CYFAR *)(CYREG_PRT2_DM0), (const void CYFAR *)(BS_IOPINS0_2_VAL), 8u);
 434:Generated_Source\PSoC5/cyfitter_cfg.c **** 	CYCONFIGCPY((void CYFAR *)(CYREG_PRT3_DM0), (const void CYFAR *)(BS_IOPINS0_3_VAL), 8u);
 435:Generated_Source\PSoC5/cyfitter_cfg.c **** 	/* Switch Boost to the precision bandgap reference from its internal reference */
 436:Generated_Source\PSoC5/cyfitter_cfg.c **** 	CY_SET_REG8((void CYXDATA *)CYREG_BOOST_CR2, (CY_GET_REG8((void CYXDATA *)CYREG_BOOST_CR2) | 0x08u
 275              		.loc 1 436 0
 276 00c2 A2F55F62 		sub	r2, r2, #3568
 277              	.LBB88:
 278              	.LBB87:
  86:Generated_Source\PSoC5/cyfitter_cfg.c **** }
 279              		.loc 1 86 0
 280 00c6 C2F8141E 		str	r1, [r2, #3604]	@ unaligned
 281              	.LVL19:
 282 00ca C2F8100E 		str	r0, [r2, #3600]	@ unaligned
 283              	.LBE87:
 284              	.LBE88:
ARM GAS  C:\Users\mgnocco\AppData\Local\Temp\cc9OgrOS.s 			page 14


 285              		.loc 1 436 0
 286 00ce 1378     		ldrb	r3, [r2]	@ zero_extendqisi2
 287              	.LBB89:
 288              	.LBB72:
 239:Generated_Source\PSoC5/cyfitter_cfg.c **** 	CY_SET_XTND_REG8((void CYFAR *)(CYREG_CLKDIST_DCFG1_CFG0 + 0x2u), 0x18u);
 289              		.loc 1 239 0
 290 00d0 3321     		movs	r1, #51
 291              	.LBE72:
 292              	.LBE89:
 293              		.loc 1 436 0
 294 00d2 43F00803 		orr	r3, r3, #8
 295 00d6 1370     		strb	r3, [r2]
 437:Generated_Source\PSoC5/cyfitter_cfg.c **** 
 438:Generated_Source\PSoC5/cyfitter_cfg.c **** 	/* Set Flash Cycles based on max possible frequency in case a glitch occurs during ClockSetup(). *
 439:Generated_Source\PSoC5/cyfitter_cfg.c **** 	CY_SET_XTND_REG8((void CYFAR *)(CYREG_CACHE_CC_CTL), (((CYDEV_INSTRUCT_CACHE_ENABLED) != 0) ? 0x61
 296              		.loc 1 439 0
 297 00d8 3B4B     		ldr	r3, .L20+48
 298 00da 6122     		movs	r2, #97
 299 00dc 1A70     		strb	r2, [r3]
 300              	.LBB90:
 301              	.LBB73:
 237:Generated_Source\PSoC5/cyfitter_cfg.c **** 	CY_SET_XTND_REG8((void CYFAR *)(CYREG_CLKDIST_DCFG0_CFG0 + 0x2u), 0x18u);
 302              		.loc 1 237 0
 303 00de 0B22     		movs	r2, #11
 304 00e0 A3F5F063 		sub	r3, r3, #1920
 305 00e4 1A80     		strh	r2, [r3]	@ movhi
 238:Generated_Source\PSoC5/cyfitter_cfg.c **** 	CY_SET_XTND_REG16((void CYFAR *)(CYREG_CLKDIST_DCFG1_CFG0), 0x0033u);
 306              		.loc 1 238 0
 307 00e6 394A     		ldr	r2, .L20+52
 308 00e8 1823     		movs	r3, #24
 309 00ea 1370     		strb	r3, [r2]
 239:Generated_Source\PSoC5/cyfitter_cfg.c **** 	CY_SET_XTND_REG8((void CYFAR *)(CYREG_CLKDIST_DCFG1_CFG0 + 0x2u), 0x18u);
 310              		.loc 1 239 0
 311 00ec 5180     		strh	r1, [r2, #2]	@ movhi
 240:Generated_Source\PSoC5/cyfitter_cfg.c **** 
 312              		.loc 1 240 0
 313 00ee 1371     		strb	r3, [r2, #4]
 243:Generated_Source\PSoC5/cyfitter_cfg.c **** 	CY_SET_XTND_REG8((void CYFAR *)(CYREG_CLKDIST_CR), 0x08u);
 314              		.loc 1 243 0
 315 00f0 374B     		ldr	r3, .L20+56
 316 00f2 0222     		movs	r2, #2
 317 00f4 1A70     		strb	r2, [r3]
 247:Generated_Source\PSoC5/cyfitter_cfg.c **** 	CY_SET_XTND_REG8((void CYFAR *)(CYREG_IMO_TR1), (CY_GET_XTND_REG8((void CYFAR *)CYREG_FLSHID_CUST_
 318              		.loc 1 247 0
 319 00f6 0321     		movs	r1, #3
 244:Generated_Source\PSoC5/cyfitter_cfg.c **** 
 320              		.loc 1 244 0
 321 00f8 0822     		movs	r2, #8
 322 00fa 4FF04023 		mov	r3, #1073758208
 323 00fe 1A70     		strb	r2, [r3]
 247:Generated_Source\PSoC5/cyfitter_cfg.c **** 	CY_SET_XTND_REG8((void CYFAR *)(CYREG_IMO_TR1), (CY_GET_XTND_REG8((void CYFAR *)CYREG_FLSHID_CUST_
 324              		.loc 1 247 0
 325 0100 83F80012 		strb	r1, [r3, #512]
 248:Generated_Source\PSoC5/cyfitter_cfg.c **** 
 326              		.loc 1 248 0
 327 0104 334B     		ldr	r3, .L20+60
 328 0106 3449     		ldr	r1, .L20+64
ARM GAS  C:\Users\mgnocco\AppData\Local\Temp\cc9OgrOS.s 			page 15


 329 0108 1B78     		ldrb	r3, [r3]	@ zero_extendqisi2
 254:Generated_Source\PSoC5/cyfitter_cfg.c **** 	for (timeout = 250u / 10u; (timeout > 0u) && (pllLock != 0x03u); timeout--)
 330              		.loc 1 254 0
 331 010a 0025     		movs	r5, #0
 248:Generated_Source\PSoC5/cyfitter_cfg.c **** 
 332              		.loc 1 248 0
 333 010c DBB2     		uxtb	r3, r3
 334 010e 0B70     		strb	r3, [r1]
 251:Generated_Source\PSoC5/cyfitter_cfg.c **** 	CY_SET_XTND_REG16((void CYFAR *)(CYREG_FASTCLK_PLL_CFG0), 0x1251u);
 335              		.loc 1 251 0
 336 0110 324B     		ldr	r3, .L20+68
 337 0112 1A80     		strh	r2, [r3]	@ movhi
 252:Generated_Source\PSoC5/cyfitter_cfg.c **** 	/* Wait up to 250us for the PLL to lock */
 338              		.loc 1 252 0
 339 0114 41F25122 		movw	r2, #4689
 340 0118 23F8022C 		strh	r2, [r3, #-2]	@ movhi
 341              	.LVL20:
 342              	.L10:
 257:Generated_Source\PSoC5/cyfitter_cfg.c **** 		CyDelayCycles(10u * 48u); /* Delay 10us based on 48MHz clock */
 343              		.loc 1 257 0
 344 011c 3B78     		ldrb	r3, [r7]	@ zero_extendqisi2
 258:Generated_Source\PSoC5/cyfitter_cfg.c **** 	}
 345              		.loc 1 258 0
 346 011e 4FF4F070 		mov	r0, #480
 257:Generated_Source\PSoC5/cyfitter_cfg.c **** 		CyDelayCycles(10u * 48u); /* Delay 10us based on 48MHz clock */
 347              		.loc 1 257 0
 348 0122 03F00103 		and	r3, r3, #1
 349 0126 43EA4505 		orr	r5, r3, r5, lsl #1
 350              	.LVL21:
 258:Generated_Source\PSoC5/cyfitter_cfg.c **** 	}
 351              		.loc 1 258 0
 352 012a FFF7FEFF 		bl	CyDelayCycles
 353              	.LVL22:
 255:Generated_Source\PSoC5/cyfitter_cfg.c **** 	{ 
 354              		.loc 1 255 0
 355 012e 013E     		subs	r6, r6, #1
 356              	.LVL23:
 257:Generated_Source\PSoC5/cyfitter_cfg.c **** 		CyDelayCycles(10u * 48u); /* Delay 10us based on 48MHz clock */
 357              		.loc 1 257 0
 358 0130 05F00305 		and	r5, r5, #3
 359              	.LVL24:
 255:Generated_Source\PSoC5/cyfitter_cfg.c **** 	{ 
 360              		.loc 1 255 0
 361 0134 2FD0     		beq	.L9
 362              	.LVL25:
 363 0136 032D     		cmp	r5, #3
 364 0138 F0D1     		bne	.L10
 267:Generated_Source\PSoC5/cyfitter_cfg.c **** 	CY_SET_XTND_REG8((void CYFAR *)(CYREG_CLKDIST_MSTR0), 0x07u);
 365              		.loc 1 267 0
 366 013a 294B     		ldr	r3, .L20+72
 367 013c 4FF48072 		mov	r2, #256
 368 0140 1A80     		strh	r2, [r3]	@ movhi
 269:Generated_Source\PSoC5/cyfitter_cfg.c **** 	CY_SET_XTND_REG8((void CYFAR *)(CYREG_CLKDIST_BCFG2), 0x48u);
 369              		.loc 1 269 0
 370 0142 2849     		ldr	r1, .L20+76
 268:Generated_Source\PSoC5/cyfitter_cfg.c **** 	CY_SET_XTND_REG8((void CYFAR *)(CYREG_CLKDIST_BCFG0), 0x00u);
 371              		.loc 1 268 0
ARM GAS  C:\Users\mgnocco\AppData\Local\Temp\cc9OgrOS.s 			page 16


 372 0144 0722     		movs	r2, #7
 373 0146 1A70     		strb	r2, [r3]
 270:Generated_Source\PSoC5/cyfitter_cfg.c **** 	CY_SET_XTND_REG8((void CYFAR *)(CYREG_CLKDIST_MSTR0), 0x00u);
 374              		.loc 1 270 0
 375 0148 4820     		movs	r0, #72
 269:Generated_Source\PSoC5/cyfitter_cfg.c **** 	CY_SET_XTND_REG8((void CYFAR *)(CYREG_CLKDIST_BCFG2), 0x48u);
 376              		.loc 1 269 0
 377 014a 0022     		movs	r2, #0
 378 014c 0A70     		strb	r2, [r1]
 270:Generated_Source\PSoC5/cyfitter_cfg.c **** 	CY_SET_XTND_REG8((void CYFAR *)(CYREG_CLKDIST_MSTR0), 0x00u);
 379              		.loc 1 270 0
 380 014e 8870     		strb	r0, [r1, #2]
 271:Generated_Source\PSoC5/cyfitter_cfg.c **** 	CY_SET_XTND_REG8((void CYFAR *)(CYREG_CLKDIST_LD), 0x02u);
 381              		.loc 1 271 0
 382 0150 1A70     		strb	r2, [r3]
 272:Generated_Source\PSoC5/cyfitter_cfg.c **** 
 383              		.loc 1 272 0
 384 0152 0222     		movs	r2, #2
 385 0154 03F8032C 		strb	r2, [r3, #-3]
 274:Generated_Source\PSoC5/cyfitter_cfg.c **** }
 386              		.loc 1 274 0
 387 0158 234A     		ldr	r2, .L20+80
 388              	.LBE73:
 389              	.LBE90:
 390              	.LBB91:
 391              	.LBB92:
  86:Generated_Source\PSoC5/cyfitter_cfg.c **** }
 392              		.loc 1 86 0
 393 015a 244D     		ldr	r5, .L20+84
 394              	.LVL26:
 395              	.LBE92:
 396              	.LBE91:
 397              	.LBB94:
 398              	.LBB74:
 274:Generated_Source\PSoC5/cyfitter_cfg.c **** }
 399              		.loc 1 274 0
 400 015c 1378     		ldrb	r3, [r2]	@ zero_extendqisi2
 401 015e 43F00303 		orr	r3, r3, #3
 402 0162 1370     		strb	r3, [r2]
 403              	.LVL27:
 404              	.LBE74:
 405              	.LBE94:
 440:Generated_Source\PSoC5/cyfitter_cfg.c **** 	/* Setup clocks based on selections from Clock DWR */
 441:Generated_Source\PSoC5/cyfitter_cfg.c **** 	ClockSetup();
 442:Generated_Source\PSoC5/cyfitter_cfg.c **** 	/* Set Flash Cycles based on newly configured 24.00MHz Bus Clock. */
 443:Generated_Source\PSoC5/cyfitter_cfg.c **** 	CY_SET_XTND_REG8((void CYFAR *)(CYREG_CACHE_CC_CTL), (((CYDEV_INSTRUCT_CACHE_ENABLED) != 0) ? 0x81
 406              		.loc 1 443 0
 407 0164 184B     		ldr	r3, .L20+48
 408 0166 8122     		movs	r2, #129
 409 0168 1A70     		strb	r2, [r3]
 444:Generated_Source\PSoC5/cyfitter_cfg.c **** 	CY_SET_XTND_REG8((void CYFAR *)(CYREG_PANTHER_WAITPIPE), 0x01u);
 410              		.loc 1 444 0
 411 016a 03F5F723 		add	r3, r3, #505856
 412 016e 0122     		movs	r2, #1
 413 0170 0433     		adds	r3, r3, #4
 414 0172 1A70     		strb	r2, [r3]
 415              	.LBB95:
ARM GAS  C:\Users\mgnocco\AppData\Local\Temp\cc9OgrOS.s 			page 17


 416              	.LBB96:
 299:Generated_Source\PSoC5/cyfitter_cfg.c **** 	CY_SET_XTND_REG8((void CYFAR *)(CYREG_BG_DFT0), (bg_xover_inl_trim & 0x07u));
 417              		.loc 1 299 0
 418 0174 1E4B     		ldr	r3, .L20+88
 300:Generated_Source\PSoC5/cyfitter_cfg.c **** 	CY_SET_XTND_REG8((void CYFAR *)(CYREG_BG_DFT1), ((bg_xover_inl_trim >> 4) & 0x0Fu));
 419              		.loc 1 300 0
 420 0176 1F4A     		ldr	r2, .L20+92
 299:Generated_Source\PSoC5/cyfitter_cfg.c **** 	CY_SET_XTND_REG8((void CYFAR *)(CYREG_BG_DFT0), (bg_xover_inl_trim & 0x07u));
 421              		.loc 1 299 0
 422 0178 1B78     		ldrb	r3, [r3]	@ zero_extendqisi2
 423 017a DBB2     		uxtb	r3, r3
 424              	.LVL28:
 300:Generated_Source\PSoC5/cyfitter_cfg.c **** 	CY_SET_XTND_REG8((void CYFAR *)(CYREG_BG_DFT1), ((bg_xover_inl_trim >> 4) & 0x0Fu));
 425              		.loc 1 300 0
 426 017c 03F00701 		and	r1, r3, #7
 301:Generated_Source\PSoC5/cyfitter_cfg.c **** 	CY_SET_XTND_REG8((void CYFAR *)CYREG_PUMP_CR0, 0x44u);
 427              		.loc 1 301 0
 428 0180 1B09     		lsrs	r3, r3, #4
 429              	.LVL29:
 300:Generated_Source\PSoC5/cyfitter_cfg.c **** 	CY_SET_XTND_REG8((void CYFAR *)(CYREG_BG_DFT1), ((bg_xover_inl_trim >> 4) & 0x0Fu));
 430              		.loc 1 300 0
 431 0182 1170     		strb	r1, [r2]
 301:Generated_Source\PSoC5/cyfitter_cfg.c **** 	CY_SET_XTND_REG8((void CYFAR *)CYREG_PUMP_CR0, 0x44u);
 432              		.loc 1 301 0
 433 0184 5370     		strb	r3, [r2, #1]
 302:Generated_Source\PSoC5/cyfitter_cfg.c **** }
 434              		.loc 1 302 0
 435 0186 1C4B     		ldr	r3, .L20+96
 436 0188 4422     		movs	r2, #68
 437 018a 1A70     		strb	r2, [r3]
 438              	.LVL30:
 439              	.LBE96:
 440              	.LBE95:
 441              	.LBB97:
 442              	.LBB93:
  86:Generated_Source\PSoC5/cyfitter_cfg.c **** }
 443              		.loc 1 86 0
 444 018c 94E80F00 		ldmia	r4, {r0, r1, r2, r3}
 445 0190 07C5     		stmia	r5!, {r0, r1, r2}
 446 0192 2B80     		strh	r3, [r5]	@ movhi
 447              	.LVL31:
 448 0194 F8BD     		pop	{r3, r4, r5, r6, r7, pc}
 449              	.LVL32:
 450              	.L9:
 451 0196 FEE7     		b	.L9
 452              	.L21:
 453              		.align	2
 454              	.L20:
 455 0198 E8460040 		.word	1073759976
 456 019c 00000000 		.word	.LANCHOR0
 457 01a0 B0040048 		.word	1207960752
 458 01a4 001A0140 		.word	1073814016
 459 01a8 5C000048 		.word	1207959644
 460 01ac FCFFFF47 		.word	1207959548
 461 01b0 03500140 		.word	1073827843
 462 01b4 A0430040 		.word	1073759136
 463 01b8 C0510040 		.word	1073762752
ARM GAS  C:\Users\mgnocco\AppData\Local\Temp\cc9OgrOS.s 			page 18


 464 01bc 25420040 		.word	1073758757
 465 01c0 30050048 		.word	1207960880
 466 01c4 12510040 		.word	1073762578
 467 01c8 00480040 		.word	1073760256
 468 01cc 82400040 		.word	1073758338
 469 01d0 00430040 		.word	1073758976
 470 01d4 08010049 		.word	1224737032
 471 01d8 A1460040 		.word	1073759905
 472 01dc 22420040 		.word	1073758754
 473 01e0 04400040 		.word	1073758212
 474 01e4 06400040 		.word	1073758214
 475 01e8 A2430040 		.word	1073759138
 476 01ec B0430040 		.word	1073759152
 477 01f0 CF010049 		.word	1224737231
 478 01f4 6E580040 		.word	1073764462
 479 01f8 76580040 		.word	1073764470
 480              	.LBE93:
 481              	.LBE97:
 482              		.cfi_endproc
 483              	.LFE8:
 484              		.size	cyfitter_cfg, .-cyfitter_cfg
 485              		.section	.rodata
 486              		.set	.LANCHOR0,. + 0
 487              		.type	cfg_memset_list.5018, %object
 488              		.size	cfg_memset_list.5018, 48
 489              	cfg_memset_list.5018:
 490 0000 40510040 		.4byte	1073762624
 491 0004 3000     		.2byte	48
 492 0006 F0510040 		.4byte	1073762800
 493 000a 1000     		.2byte	16
 494 000c 00000140 		.4byte	1073807360
 495 0010 0010     		.2byte	4096
 496 0012 00140140 		.4byte	1073812480
 497 0016 0006     		.2byte	1536
 498 0018 801A0140 		.4byte	1073814144
 499 001c 8001     		.2byte	384
 500 001e 00400140 		.4byte	1073823744
 501 0022 000A     		.2byte	2560
 502 0024 004C0140 		.4byte	1073826816
 503 0028 0002     		.2byte	512
 504 002a 00500140 		.4byte	1073827840
 505 002e 2000     		.2byte	32
 506              		.text
 507              	.Letext0:
 508              		.file 2 "c:\\program files (x86)\\cypress\\psoc creator\\4.4\\psoc creator\\import\\gnu\\arm\\5.4.
 509              		.file 3 "Generated_Source\\PSoC5\\cytypes.h"
 510              		.file 4 "Generated_Source\\PSoC5\\CyLib.h"