ARM GAS  C:\Users\mgnocco\AppData\Local\Temp\cc0XtOQU.s 			page 1


   1              		.syntax unified
   2              		.cpu cortex-m3
   3              		.fpu softvfp
   4              		.eabi_attribute 20, 1
   5              		.eabi_attribute 21, 1
   6              		.eabi_attribute 23, 3
   7              		.eabi_attribute 24, 1
   8              		.eabi_attribute 25, 1
   9              		.eabi_attribute 26, 1
  10              		.eabi_attribute 30, 1
  11              		.eabi_attribute 34, 1
  12              		.eabi_attribute 18, 4
  13              		.thumb
  14              		.syntax unified
  15              		.file	"source01.c"
  16              		.text
  17              	.Ltext0:
  18              		.cfi_sections	.debug_frame
  19              		.section	.text.WriteControlRegisterIMU,"ax",%progbits
  20              		.align	2
  21              		.global	WriteControlRegisterIMU
  22              		.thumb
  23              		.thumb_func
  24              		.type	WriteControlRegisterIMU, %function
  25              	WriteControlRegisterIMU:
  26              	.LFB64:
  27              		.file 1 "source01.c"
   1:source01.c    **** /* ========================================
   2:source01.c    ****  *
   3:source01.c    ****  * Copyright YOUR COMPANY, THE YEAR
   4:source01.c    ****  * All Rights Reserved
   5:source01.c    ****  * UNPUBLISHED, LICENSED SOFTWARE.
   6:source01.c    ****  *
   7:source01.c    ****  * CONFIDENTIAL AND PROPRIETARY INFORMATION
   8:source01.c    ****  * WHICH IS THE PROPERTY OF your company.
   9:source01.c    ****  *
  10:source01.c    ****  * ========================================
  11:source01.c    **** */
  12:source01.c    **** 
  13:source01.c    **** #include "header01.h"
  14:source01.c    **** #include "globals.h"
  15:source01.c    **** /********************************** *********************************************
  16:source01.c    **** * Function Name: Write Control Register
  17:source01.c    **** *********************************************************************************/
  18:source01.c    **** 
  19:source01.c    **** void WriteControlRegisterIMU(uint8 address, uint8 dta){
  28              		.loc 1 19 0
  29              		.cfi_startproc
  30              		@ args = 0, pretend = 0, frame = 0
  31              		@ frame_needed = 0, uses_anonymous_args = 0
  32              	.LVL0:
  33 0000 38B5     		push	{r3, r4, r5, lr}
  34              		.cfi_def_cfa_offset 16
  35              		.cfi_offset 3, -16
  36              		.cfi_offset 4, -12
  37              		.cfi_offset 5, -8
  38              		.cfi_offset 14, -4
ARM GAS  C:\Users\mgnocco\AppData\Local\Temp\cc0XtOQU.s 			page 2


  39 0002 0546     		mov	r5, r0
  40 0004 0C46     		mov	r4, r1
  20:source01.c    **** 	
  21:source01.c    **** 	SPI_IMU_ClearRxBuffer();
  41              		.loc 1 21 0
  42 0006 FFF7FEFF 		bl	SPI_IMU_ClearRxBuffer
  43              	.LVL1:
  22:source01.c    **** 	SPI_IMU_ClearTxBuffer();
  44              		.loc 1 22 0
  45 000a FFF7FEFF 		bl	SPI_IMU_ClearTxBuffer
  46              	.LVL2:
  23:source01.c    **** 	SPI_IMU_ClearFIFO();
  47              		.loc 1 23 0
  48 000e FFF7FEFF 		bl	SPI_IMU_ClearFIFO
  49              	.LVL3:
  24:source01.c    **** 	SPI_IMU_WriteByte(LSM6DSRX_WCR | address);
  50              		.loc 1 24 0
  51 0012 2846     		mov	r0, r5
  52 0014 FFF7FEFF 		bl	SPI_IMU_WriteTxData
  53              	.LVL4:
  54              	.L2:
  25:source01.c    **** 	while(!( SPI_IMU_ReadStatus() & SPI_IMU_STS_TX_FIFO_EMPTY));		
  55              		.loc 1 25 0 discriminator 1
  56 0018 FFF7FEFF 		bl	SPI_IMU_ReadStatus
  57              	.LVL5:
  58 001c 10F0020F 		tst	r0, #2
  59 0020 FAD0     		beq	.L2
  26:source01.c    **** 	SPI_IMU_WriteByte(dta);
  60              		.loc 1 26 0
  61 0022 2046     		mov	r0, r4
  62 0024 FFF7FEFF 		bl	SPI_IMU_WriteTxData
  63              	.LVL6:
  64              	.L3:
  27:source01.c    **** 	while(!( SPI_IMU_ReadStatus() & SPI_IMU_STS_TX_FIFO_EMPTY));
  65              		.loc 1 27 0 discriminator 1
  66 0028 FFF7FEFF 		bl	SPI_IMU_ReadStatus
  67              	.LVL7:
  68 002c 10F0020F 		tst	r0, #2
  69 0030 FAD0     		beq	.L3
  28:source01.c    **** }
  70              		.loc 1 28 0
  71 0032 38BD     		pop	{r3, r4, r5, pc}
  72              		.cfi_endproc
  73              	.LFE64:
  74              		.size	WriteControlRegisterIMU, .-WriteControlRegisterIMU
  75              		.section	.text.ReadControlRegisterIMU,"ax",%progbits
  76              		.align	2
  77              		.global	ReadControlRegisterIMU
  78              		.thumb
  79              		.thumb_func
  80              		.type	ReadControlRegisterIMU, %function
  81              	ReadControlRegisterIMU:
  82              	.LFB65:
  29:source01.c    **** 
  30:source01.c    **** /*******************************************************************************
  31:source01.c    **** * Function Name: Read Control Register
  32:source01.c    **** *********************************************************************************/
ARM GAS  C:\Users\mgnocco\AppData\Local\Temp\cc0XtOQU.s 			page 3


  33:source01.c    **** uint8 ReadControlRegisterIMU(uint8 address){
  83              		.loc 1 33 0
  84              		.cfi_startproc
  85              		@ args = 0, pretend = 0, frame = 0
  86              		@ frame_needed = 0, uses_anonymous_args = 0
  87              	.LVL8:
  88 0000 08B5     		push	{r3, lr}
  89              		.cfi_def_cfa_offset 8
  90              		.cfi_offset 3, -8
  91              		.cfi_offset 14, -4
  92              	.LVL9:
  34:source01.c    ****     
  35:source01.c    **** 	uint8 controlreg = 0;
  36:source01.c    **** 	SPI_IMU_WriteByte(LSM6DSRX_RCR | address);
  93              		.loc 1 36 0
  94 0002 40F08000 		orr	r0, r0, #128
  95              	.LVL10:
  96 0006 FFF7FEFF 		bl	SPI_IMU_WriteTxData
  97              	.LVL11:
  98              	.L6:
  37:source01.c    ****     while(!( SPI_IMU_ReadStatus() & SPI_IMU_STS_TX_FIFO_EMPTY));
  99              		.loc 1 37 0 discriminator 1
 100 000a FFF7FEFF 		bl	SPI_IMU_ReadStatus
 101              	.LVL12:
 102 000e 10F0020F 		tst	r0, #2
 103 0012 FAD0     		beq	.L6
  38:source01.c    ****     SPI_IMU_WriteByte(0x00);
 104              		.loc 1 38 0
 105 0014 0020     		movs	r0, #0
 106 0016 FFF7FEFF 		bl	SPI_IMU_WriteTxData
 107              	.LVL13:
 108              	.L7:
  39:source01.c    **** 	while(!( SPI_IMU_ReadStatus() & SPI_IMU_STS_SPI_DONE));
 109              		.loc 1 39 0 discriminator 1
 110 001a FFF7FEFF 		bl	SPI_IMU_ReadStatus
 111              	.LVL14:
 112 001e 10F0010F 		tst	r0, #1
 113 0022 FAD0     		beq	.L7
  40:source01.c    **** 	controlreg = SPI_IMU_ReadByte();        //real data
 114              		.loc 1 40 0
 115 0024 FFF7FEFF 		bl	SPI_IMU_ReadRxData
 116              	.LVL15:
  41:source01.c    **** 	return controlreg;
  42:source01.c    **** }
 117              		.loc 1 42 0
 118 0028 08BD     		pop	{r3, pc}
 119              		.cfi_endproc
 120              	.LFE65:
 121              		.size	ReadControlRegisterIMU, .-ReadControlRegisterIMU
 122 002a 00BF     		.section	.text.ChipSelectorIMU,"ax",%progbits
 123              		.align	2
 124              		.global	ChipSelectorIMU
 125              		.thumb
 126              		.thumb_func
 127              		.type	ChipSelectorIMU, %function
 128              	ChipSelectorIMU:
 129              	.LFB66:
ARM GAS  C:\Users\mgnocco\AppData\Local\Temp\cc0XtOQU.s 			page 4


  43:source01.c    **** 
  44:source01.c    **** 
  45:source01.c    **** 
  46:source01.c    **** 
  47:source01.c    **** void ChipSelectorIMU(int n)
  48:source01.c    **** {
 130              		.loc 1 48 0
 131              		.cfi_startproc
 132              		@ args = 0, pretend = 0, frame = 0
 133              		@ frame_needed = 0, uses_anonymous_args = 0
 134              		@ link register save eliminated.
 135              	.LVL16:
 136 0000 7047     		bx	lr
 137              		.cfi_endproc
 138              	.LFE66:
 139              		.size	ChipSelectorIMU, .-ChipSelectorIMU
 140 0002 00BF     		.section	.text.InitIMU,"ax",%progbits
 141              		.align	2
 142              		.global	InitIMU
 143              		.thumb
 144              		.thumb_func
 145              		.type	InitIMU, %function
 146              	InitIMU:
 147              	.LFB67:
  49:source01.c    ****     
  50:source01.c    ****    // Chip_Select_IMU_Write(n);
  51:source01.c    **** }
  52:source01.c    **** 
  53:source01.c    **** void InitIMU() {
 148              		.loc 1 53 0
 149              		.cfi_startproc
 150              		@ args = 0, pretend = 0, frame = 0
 151              		@ frame_needed = 0, uses_anonymous_args = 0
 152              		.loc 1 53 0
 153 0000 08B5     		push	{r3, lr}
 154              		.cfi_def_cfa_offset 8
 155              		.cfi_offset 3, -8
 156              		.cfi_offset 14, -4
  54:source01.c    ****     int IMU_ack;
  55:source01.c    ****     ChipSelectorIMU(0);
  56:source01.c    ****     IMU_ack = ReadControlRegisterIMU(LSM6DSRX_WHO_AM_I);
 157              		.loc 1 56 0
 158 0002 0F20     		movs	r0, #15
 159 0004 FFF7FEFF 		bl	ReadControlRegisterIMU
 160              	.LVL17:
  57:source01.c    ****     CyDelay(10);
 161              		.loc 1 57 0
 162 0008 0A20     		movs	r0, #10
 163 000a FFF7FEFF 		bl	CyDelay
 164              	.LVL18:
  58:source01.c    ****     WriteControlRegisterIMU(LSM6DSRX_CTRL1_XL,0b01100000); //ODR = 416Hz, FSR=+/-2g, LPF2 disabled
 165              		.loc 1 58 0
 166 000e 6021     		movs	r1, #96
 167 0010 1020     		movs	r0, #16
 168 0012 FFF7FEFF 		bl	WriteControlRegisterIMU
 169              	.LVL19:
  59:source01.c    ****     CyDelay(10);
ARM GAS  C:\Users\mgnocco\AppData\Local\Temp\cc0XtOQU.s 			page 5


 170              		.loc 1 59 0
 171 0016 0A20     		movs	r0, #10
 172 0018 FFF7FEFF 		bl	CyDelay
 173              	.LVL20:
  60:source01.c    ****     WriteControlRegisterIMU(LSM6DSRX_CTRL2_G,0b01100000); //ODR = 416Hz, FSR=+/-250dps
 174              		.loc 1 60 0
 175 001c 6021     		movs	r1, #96
 176 001e 1120     		movs	r0, #17
 177 0020 FFF7FEFF 		bl	WriteControlRegisterIMU
 178              	.LVL21:
  61:source01.c    ****     CyDelay(10);
 179              		.loc 1 61 0
 180 0024 0A20     		movs	r0, #10
 181 0026 FFF7FEFF 		bl	CyDelay
 182              	.LVL22:
  62:source01.c    ****     WriteControlRegisterIMU(LSM6DSRX_CTRL4_C,0b00000100); //Disable I2C interface
 183              		.loc 1 62 0
 184 002a 0421     		movs	r1, #4
 185 002c 1320     		movs	r0, #19
 186 002e FFF7FEFF 		bl	WriteControlRegisterIMU
 187              	.LVL23:
  63:source01.c    ****     CyDelay(10);
 188              		.loc 1 63 0
 189 0032 0A20     		movs	r0, #10
 190 0034 FFF7FEFF 		bl	CyDelay
 191              	.LVL24:
  64:source01.c    ****     WriteControlRegisterIMU(LSM6DSRX_CTRL9_XL,0b00000010); //Disable I3C interface
 192              		.loc 1 64 0
 193 0038 0221     		movs	r1, #2
 194 003a 1820     		movs	r0, #24
 195 003c FFF7FEFF 		bl	WriteControlRegisterIMU
 196              	.LVL25:
  65:source01.c    ****     CyDelay(10);}
 197              		.loc 1 65 0
 198 0040 0A20     		movs	r0, #10
 199 0042 FFF7FEFF 		bl	CyDelay
 200              	.LVL26:
 201 0046 08BD     		pop	{r3, pc}
 202              		.cfi_endproc
 203              	.LFE67:
 204              		.size	InitIMU, .-InitIMU
 205              		.section	.text.ReadAcc,"ax",%progbits
 206              		.align	2
 207              		.global	ReadAcc
 208              		.thumb
 209              		.thumb_func
 210              		.type	ReadAcc, %function
 211              	ReadAcc:
 212              	.LFB68:
  66:source01.c    **** 
  67:source01.c    **** /*******************************************************************************
  68:source01.c    **** * Function Name: Read Acc's Data of IMU n
  69:source01.c    **** *********************************************************************************/
  70:source01.c    **** void ReadAcc()
  71:source01.c    **** {   uint8 low=0, high=0;
 213              		.loc 1 71 0
 214              		.cfi_startproc
ARM GAS  C:\Users\mgnocco\AppData\Local\Temp\cc0XtOQU.s 			page 6


 215              		@ args = 0, pretend = 0, frame = 0
 216              		@ frame_needed = 0, uses_anonymous_args = 0
 217 0000 38B5     		push	{r3, r4, r5, lr}
 218              		.cfi_def_cfa_offset 16
 219              		.cfi_offset 3, -16
 220              		.cfi_offset 4, -12
 221              		.cfi_offset 5, -8
 222              		.cfi_offset 14, -4
 223              	.LVL27:
  72:source01.c    ****     low=ReadControlRegisterIMU(LSM6DSRX_OUTX_L_A);
 224              		.loc 1 72 0
 225 0002 2820     		movs	r0, #40
 226 0004 FFF7FEFF 		bl	ReadControlRegisterIMU
 227              	.LVL28:
 228 0008 0546     		mov	r5, r0
 229              	.LVL29:
  73:source01.c    ****     high=ReadControlRegisterIMU(LSM6DSRX_OUTX_H_A);
 230              		.loc 1 73 0
 231 000a 2920     		movs	r0, #41
 232 000c FFF7FEFF 		bl	ReadControlRegisterIMU
 233              	.LVL30:
  74:source01.c    **** 	Accel[0] = high; 
 234              		.loc 1 74 0
 235 0010 0A4C     		ldr	r4, .L14
 236 0012 2070     		strb	r0, [r4]
  75:source01.c    **** 	Accel[1] = low; 
 237              		.loc 1 75 0
 238 0014 6570     		strb	r5, [r4, #1]
 239              	.LVL31:
  76:source01.c    **** 	low=0, high=0;
  77:source01.c    **** 			
  78:source01.c    **** 	//read Y
  79:source01.c    ****     low=ReadControlRegisterIMU(LSM6DSRX_OUTY_L_A);
 240              		.loc 1 79 0
 241 0016 2A20     		movs	r0, #42
 242 0018 FFF7FEFF 		bl	ReadControlRegisterIMU
 243              	.LVL32:
 244 001c 0546     		mov	r5, r0
 245              	.LVL33:
  80:source01.c    ****     high=ReadControlRegisterIMU(LSM6DSRX_OUTY_H_A);
 246              		.loc 1 80 0
 247 001e 2B20     		movs	r0, #43
 248 0020 FFF7FEFF 		bl	ReadControlRegisterIMU
 249              	.LVL34:
  81:source01.c    **** 	Accel[2] = high; 
 250              		.loc 1 81 0
 251 0024 A070     		strb	r0, [r4, #2]
  82:source01.c    **** 	Accel[3] = low; 
 252              		.loc 1 82 0
 253 0026 E570     		strb	r5, [r4, #3]
 254              	.LVL35:
  83:source01.c    **** 	low=0, high=0;
  84:source01.c    **** 		
  85:source01.c    **** 	//read Z
  86:source01.c    ****     low=ReadControlRegisterIMU(LSM6DSRX_OUTZ_L_A);
 255              		.loc 1 86 0
 256 0028 2C20     		movs	r0, #44
ARM GAS  C:\Users\mgnocco\AppData\Local\Temp\cc0XtOQU.s 			page 7


 257 002a FFF7FEFF 		bl	ReadControlRegisterIMU
 258              	.LVL36:
 259 002e 0546     		mov	r5, r0
 260              	.LVL37:
  87:source01.c    ****     high=ReadControlRegisterIMU(LSM6DSRX_OUTZ_H_A);
 261              		.loc 1 87 0
 262 0030 2D20     		movs	r0, #45
 263 0032 FFF7FEFF 		bl	ReadControlRegisterIMU
 264              	.LVL38:
  88:source01.c    **** 	Accel[4] = high; 
 265              		.loc 1 88 0
 266 0036 2071     		strb	r0, [r4, #4]
  89:source01.c    **** 	Accel[5] = low;
 267              		.loc 1 89 0
 268 0038 6571     		strb	r5, [r4, #5]
 269              	.LVL39:
 270 003a 38BD     		pop	{r3, r4, r5, pc}
 271              	.L15:
 272              		.align	2
 273              	.L14:
 274 003c 00000000 		.word	Accel
 275              		.cfi_endproc
 276              	.LFE68:
 277              		.size	ReadAcc, .-ReadAcc
 278              		.section	.text.ReadGyro,"ax",%progbits
 279              		.align	2
 280              		.global	ReadGyro
 281              		.thumb
 282              		.thumb_func
 283              		.type	ReadGyro, %function
 284              	ReadGyro:
 285              	.LFB69:
  90:source01.c    **** 	low=0, high=0;
  91:source01.c    **** }
  92:source01.c    **** 
  93:source01.c    **** 
  94:source01.c    **** /*******************************************************************************
  95:source01.c    **** * Function Name: Read Gyro's Data of IMU n
  96:source01.c    **** *********************************************************************************/
  97:source01.c    **** void ReadGyro()
  98:source01.c    **** {   uint8 low=0, high=0;
 286              		.loc 1 98 0
 287              		.cfi_startproc
 288              		@ args = 0, pretend = 0, frame = 0
 289              		@ frame_needed = 0, uses_anonymous_args = 0
 290 0000 38B5     		push	{r3, r4, r5, lr}
 291              		.cfi_def_cfa_offset 16
 292              		.cfi_offset 3, -16
 293              		.cfi_offset 4, -12
 294              		.cfi_offset 5, -8
 295              		.cfi_offset 14, -4
 296              	.LVL40:
  99:source01.c    ****     low=ReadControlRegisterIMU(LSM6DSRX_OUTX_L_G);
 297              		.loc 1 99 0
 298 0002 2220     		movs	r0, #34
 299 0004 FFF7FEFF 		bl	ReadControlRegisterIMU
 300              	.LVL41:
ARM GAS  C:\Users\mgnocco\AppData\Local\Temp\cc0XtOQU.s 			page 8


 301 0008 0546     		mov	r5, r0
 302              	.LVL42:
 100:source01.c    ****     high=ReadControlRegisterIMU(LSM6DSRX_OUTX_H_G);
 303              		.loc 1 100 0
 304 000a 2320     		movs	r0, #35
 305 000c FFF7FEFF 		bl	ReadControlRegisterIMU
 306              	.LVL43:
 101:source01.c    **** 	Gyro[0] = high; 
 307              		.loc 1 101 0
 308 0010 0A4C     		ldr	r4, .L18
 309 0012 2070     		strb	r0, [r4]
 102:source01.c    **** 	Gyro[1] = low; 
 310              		.loc 1 102 0
 311 0014 6570     		strb	r5, [r4, #1]
 312              	.LVL44:
 103:source01.c    **** 	low=0, high=0;
 104:source01.c    **** 			
 105:source01.c    **** 	//read Y
 106:source01.c    ****     low=ReadControlRegisterIMU(LSM6DSRX_OUTY_L_G);
 313              		.loc 1 106 0
 314 0016 2420     		movs	r0, #36
 315 0018 FFF7FEFF 		bl	ReadControlRegisterIMU
 316              	.LVL45:
 317 001c 0546     		mov	r5, r0
 318              	.LVL46:
 107:source01.c    ****     high=ReadControlRegisterIMU(LSM6DSRX_OUTY_H_G);
 319              		.loc 1 107 0
 320 001e 2520     		movs	r0, #37
 321 0020 FFF7FEFF 		bl	ReadControlRegisterIMU
 322              	.LVL47:
 108:source01.c    **** 	Gyro[2] = high; 
 323              		.loc 1 108 0
 324 0024 A070     		strb	r0, [r4, #2]
 109:source01.c    **** 	Gyro[3] = low; 
 325              		.loc 1 109 0
 326 0026 E570     		strb	r5, [r4, #3]
 327              	.LVL48:
 110:source01.c    **** 	low=0, high=0;
 111:source01.c    **** 		
 112:source01.c    **** 	//read Z
 113:source01.c    ****     low=ReadControlRegisterIMU(LSM6DSRX_OUTZ_L_G);
 328              		.loc 1 113 0
 329 0028 2620     		movs	r0, #38
 330 002a FFF7FEFF 		bl	ReadControlRegisterIMU
 331              	.LVL49:
 332 002e 0546     		mov	r5, r0
 333              	.LVL50:
 114:source01.c    ****     high=ReadControlRegisterIMU(LSM6DSRX_OUTZ_H_G);
 334              		.loc 1 114 0
 335 0030 2720     		movs	r0, #39
 336 0032 FFF7FEFF 		bl	ReadControlRegisterIMU
 337              	.LVL51:
 115:source01.c    **** 	Gyro[4] = high; 
 338              		.loc 1 115 0
 339 0036 2071     		strb	r0, [r4, #4]
 116:source01.c    **** 	Gyro[5] = low;
 340              		.loc 1 116 0
ARM GAS  C:\Users\mgnocco\AppData\Local\Temp\cc0XtOQU.s 			page 9


 341 0038 6571     		strb	r5, [r4, #5]
 342              	.LVL52:
 343 003a 38BD     		pop	{r3, r4, r5, pc}
 344              	.L19:
 345              		.align	2
 346              	.L18:
 347 003c 00000000 		.word	Gyro
 348              		.cfi_endproc
 349              	.LFE69:
 350              		.size	ReadGyro, .-ReadGyro
 351              		.section	.text.ReadTemp,"ax",%progbits
 352              		.align	2
 353              		.global	ReadTemp
 354              		.thumb
 355              		.thumb_func
 356              		.type	ReadTemp, %function
 357              	ReadTemp:
 358              	.LFB70:
 117:source01.c    **** 	low=0, high=0;
 118:source01.c    **** }
 119:source01.c    **** 
 120:source01.c    **** /*******************************************************************************
 121:source01.c    **** * Function Name: Read Temperature Data of IMU n
 122:source01.c    **** *********************************************************************************/
 123:source01.c    **** void ReadTemp()
 124:source01.c    **** {
 359              		.loc 1 124 0
 360              		.cfi_startproc
 361              		@ args = 0, pretend = 0, frame = 0
 362              		@ frame_needed = 0, uses_anonymous_args = 0
 363 0000 10B5     		push	{r4, lr}
 364              		.cfi_def_cfa_offset 8
 365              		.cfi_offset 4, -8
 366              		.cfi_offset 14, -4
 367              	.LVL53:
 125:source01.c    **** 	uint8 low=0, high=0;	
 126:source01.c    ****     low=ReadControlRegisterIMU(LSM6DSRX_OUT_TEMP_L);
 368              		.loc 1 126 0
 369 0002 2020     		movs	r0, #32
 370 0004 FFF7FEFF 		bl	ReadControlRegisterIMU
 371              	.LVL54:
 372 0008 0446     		mov	r4, r0
 373              	.LVL55:
 127:source01.c    ****     high=ReadControlRegisterIMU(LSM6DSRX_OUT_TEMP_H);
 374              		.loc 1 127 0
 375 000a 2120     		movs	r0, #33
 376 000c FFF7FEFF 		bl	ReadControlRegisterIMU
 377              	.LVL56:
 128:source01.c    **** 
 129:source01.c    **** 	Temp[0] = high; 
 378              		.loc 1 129 0
 379 0010 014B     		ldr	r3, .L22
 380 0012 1870     		strb	r0, [r3]
 130:source01.c    **** 	Temp[1] = low; 
 381              		.loc 1 130 0
 382 0014 5C70     		strb	r4, [r3, #1]
 383              	.LVL57:
ARM GAS  C:\Users\mgnocco\AppData\Local\Temp\cc0XtOQU.s 			page 10


 384 0016 10BD     		pop	{r4, pc}
 385              	.L23:
 386              		.align	2
 387              	.L22:
 388 0018 00000000 		.word	Temp
 389              		.cfi_endproc
 390              	.LFE70:
 391              		.size	ReadTemp, .-ReadTemp
 392              		.section	.text.ReadIMU,"ax",%progbits
 393              		.align	2
 394              		.global	ReadIMU
 395              		.thumb
 396              		.thumb_func
 397              		.type	ReadIMU, %function
 398              	ReadIMU:
 399              	.LFB71:
 131:source01.c    **** 	low=0, high=0;
 132:source01.c    **** }
 133:source01.c    **** 
 134:source01.c    **** /*******************************************************************************
 135:source01.c    **** * Function Name: IMU Read
 136:source01.c    **** *********************************************************************************/	
 137:source01.c    **** void ReadIMU(){
 400              		.loc 1 137 0
 401              		.cfi_startproc
 402              		@ args = 0, pretend = 0, frame = 8
 403              		@ frame_needed = 0, uses_anonymous_args = 0
 404 0000 10B5     		push	{r4, lr}
 405              		.cfi_def_cfa_offset 8
 406              		.cfi_offset 4, -8
 407              		.cfi_offset 14, -4
 408 0002 82B0     		sub	sp, sp, #8
 409              		.cfi_def_cfa_offset 16
 410              	.LVL58:
 138:source01.c    ****     uint16 tmp = 0, j = 0;
 139:source01.c    ****     int packet_length = 13;
 140:source01.c    ****    // uint8 c = 1;
 141:source01.c    ****     uint8 k = 0;
 142:source01.c    ****     int16 aux_int16;
 143:source01.c    ****     float aux_float;
 144:source01.c    ****     
 145:source01.c    ****     // Packet: header + imu id(uint8) + imu flags(uint8) + crc  
 146:source01.c    ****     uint8 packet_data[350];
 147:source01.c    ****     uint8 single_packet;
 148:source01.c    ****     
 149:source01.c    ****     ChipSelectorIMU(0);
 150:source01.c    ****     ReadAcc();
 411              		.loc 1 150 0
 412 0004 FFF7FEFF 		bl	ReadAcc
 413              	.LVL59:
 151:source01.c    ****     ReadGyro();
 414              		.loc 1 151 0
 415 0008 FFF7FEFF 		bl	ReadGyro
 416              	.LVL60:
 152:source01.c    ****     ReadTemp();
 417              		.loc 1 152 0
 418 000c FFF7FEFF 		bl	ReadTemp
ARM GAS  C:\Users\mgnocco\AppData\Local\Temp\cc0XtOQU.s 			page 11


 419              	.LVL61:
 153:source01.c    ****     
 154:source01.c    ****     for (j = 0; j < 3; j++) {
 420              		.loc 1 154 0
 421 0010 0023     		movs	r3, #0
 422 0012 0CE0     		b	.L25
 423              	.LVL62:
 424              	.L26:
 155:source01.c    ****         tmp = Accel[2*j];
 425              		.loc 1 155 0 discriminator 3
 426 0014 5A00     		lsls	r2, r3, #1
 427 0016 1848     		ldr	r0, .L30
 428 0018 10F81340 		ldrb	r4, [r0, r3, lsl #1]	@ zero_extendqisi2
 429              	.LVL63:
 156:source01.c    ****         g_imuNew.accel_value[j] = (int16)(tmp<<8 | Accel[2*j + 1]);
 430              		.loc 1 156 0 discriminator 3
 431 001c 511C     		adds	r1, r2, #1
 432 001e 415C     		ldrb	r1, [r0, r1]	@ zero_extendqisi2
 433 0020 41EA0421 		orr	r1, r1, r4, lsl #8
 434 0024 1548     		ldr	r0, .L30+4
 435 0026 0244     		add	r2, r2, r0
 436 0028 5180     		strh	r1, [r2, #2]	@ movhi
 154:source01.c    ****         tmp = Accel[2*j];
 437              		.loc 1 154 0 discriminator 3
 438 002a 0133     		adds	r3, r3, #1
 439              	.LVL64:
 440 002c 9BB2     		uxth	r3, r3
 441              	.LVL65:
 442              	.L25:
 154:source01.c    ****         tmp = Accel[2*j];
 443              		.loc 1 154 0 is_stmt 0 discriminator 1
 444 002e 022B     		cmp	r3, #2
 445 0030 F0D9     		bls	.L26
 446 0032 0023     		movs	r3, #0
 447              	.LVL66:
 448 0034 0DE0     		b	.L27
 449              	.LVL67:
 450              	.L28:
 157:source01.c    ****     }
 158:source01.c    **** 
 159:source01.c    ****     
 160:source01.c    ****     for (j = 0; j < 3; j++) {
 161:source01.c    ****         tmp = Gyro[2*j];
 451              		.loc 1 161 0 is_stmt 1 discriminator 3
 452 0036 5900     		lsls	r1, r3, #1
 453 0038 1148     		ldr	r0, .L30+8
 454 003a 10F81340 		ldrb	r4, [r0, r3, lsl #1]	@ zero_extendqisi2
 455              	.LVL68:
 162:source01.c    ****         g_imuNew.gyro_value[j] = (int16)(tmp<<8 | Gyro[2*j + 1]);
 456              		.loc 1 162 0 discriminator 3
 457 003e 0131     		adds	r1, r1, #1
 458 0040 425C     		ldrb	r2, [r0, r1]	@ zero_extendqisi2
 459 0042 42EA0422 		orr	r2, r2, r4, lsl #8
 460 0046 181D     		adds	r0, r3, #4
 461 0048 0C49     		ldr	r1, .L30+4
 462 004a 21F81020 		strh	r2, [r1, r0, lsl #1]	@ movhi
 160:source01.c    ****         tmp = Gyro[2*j];
ARM GAS  C:\Users\mgnocco\AppData\Local\Temp\cc0XtOQU.s 			page 12


 463              		.loc 1 160 0 discriminator 3
 464 004e 0133     		adds	r3, r3, #1
 465              	.LVL69:
 466 0050 9BB2     		uxth	r3, r3
 467              	.LVL70:
 468              	.L27:
 160:source01.c    ****         tmp = Gyro[2*j];
 469              		.loc 1 160 0 is_stmt 0 discriminator 1
 470 0052 022B     		cmp	r3, #2
 471 0054 EFD9     		bls	.L28
 163:source01.c    ****     }      
 164:source01.c    ****     
 165:source01.c    ****     tmp = Temp[0];
 472              		.loc 1 165 0 is_stmt 1
 473 0056 0B4A     		ldr	r2, .L30+12
 474 0058 1178     		ldrb	r1, [r2]	@ zero_extendqisi2
 475              	.LVL71:
 166:source01.c    ****     g_imuNew.temp_value = (int16)(tmp<<8 | Temp[1]);
 476              		.loc 1 166 0
 477 005a 5378     		ldrb	r3, [r2, #1]	@ zero_extendqisi2
 478              	.LVL72:
 479 005c 43EA0123 		orr	r3, r3, r1, lsl #8
 480 0060 064A     		ldr	r2, .L30+4
 481 0062 D381     		strh	r3, [r2, #14]	@ movhi
 167:source01.c    ****     
 168:source01.c    ****             aux_int16 = (int16) g_imu.accel_value[0];
 482              		.loc 1 168 0
 483 0064 084B     		ldr	r3, .L30+16
 484 0066 B3F90200 		ldrsh	r0, [r3, #2]
 485 006a ADF80600 		strh	r0, [sp, #6]	@ movhi
 486              	.LVL73:
 169:source01.c    ****             single_packet = ((char*)(&aux_int16))[0];
 170:source01.c    ****             UART_PutChar( single_packet);
 487              		.loc 1 170 0
 488 006e C0B2     		uxtb	r0, r0
 489 0070 FFF7FEFF 		bl	UART_PutChar
 490              	.LVL74:
 171:source01.c    ****             /* UART_PutChar('1');
 172:source01.c    ****             single_packet = ((char*)(&aux_int16))[1];
 173:source01.c    ****           UART_PutChar(single_packet);
 174:source01.c    ****         */
 175:source01.c    ****      /*int16 c = 2;
 176:source01.c    ****     uint8 d;
 177:source01.c    ****              d = ((char*)(&c))[0];
 178:source01.c    ****             UART_PutChar(d);
 179:source01.c    ****             UART_PutChar('1');
 180:source01.c    ****             
 181:source01.c    ****            
 182:source01.c    ****             
 183:source01.c    ****             aux_int16 = (int16) g_imu.accel_value[1];
 184:source01.c    ****             single_packet = ((char*)(&aux_int16))[0];
 185:source01.c    ****              UART_PutChar( single_packet);
 186:source01.c    ****             UART_PutChar('2');
 187:source01.c    ****             single_packet = ((char*)(&aux_int16))[1];
 188:source01.c    ****              UART_PutChar( single_packet);
 189:source01.c    ****             UART_PutChar('2');
 190:source01.c    **** 
ARM GAS  C:\Users\mgnocco\AppData\Local\Temp\cc0XtOQU.s 			page 13


 191:source01.c    ****             aux_int16 = (int16) g_imu.accel_value[2];
 192:source01.c    ****             single_packet = ((char*)(&aux_int16))[0];
 193:source01.c    ****              UART_PutChar(single_packet);
 194:source01.c    ****             UART_PutChar('3');
 195:source01.c    ****             single_packet = ((char*)(&aux_int16))[1];
 196:source01.c    ****              UART_PutChar( single_packet);
 197:source01.c    ****             UART_PutChar('3');
 198:source01.c    ****             
 199:source01.c    **** */
 200:source01.c    ****         
 201:source01.c    ****           /*  aux_int16 = (int16) g_imu.gyro_value[0];
 202:source01.c    ****             single_packet[c + 1] = ((char*)(&aux_int16))[0];
 203:source01.c    ****             single_packet[c] = ((char*)(&aux_int16))[1];
 204:source01.c    **** 
 205:source01.c    ****             aux_int16 = (int16) g_imu.gyro_value[1];
 206:source01.c    ****             single_packet[c + 3] = ((char*)(&aux_int16))[0];
 207:source01.c    ****             single_packet[c + 2] = ((char*)(&aux_int16))[1];
 208:source01.c    **** 
 209:source01.c    ****             aux_int16 = (int16) g_imu.gyro_value[2];
 210:source01.c    ****             single_packet[c + 5] = ((char*)(&aux_int16))[0];
 211:source01.c    ****             single_packet[c + 4] = ((char*)(&aux_int16))[1];
 212:source01.c    **** 
 213:source01.c    ****             c = c + 6;
 214:source01.c    **** 
 215:source01.c    ****             aux_int16 = (int16) g_imu.temp_value;
 216:source01.c    ****             single_packet[c + 1] = ((char*)(&aux_int16))[0];
 217:source01.c    ****             single_packet[c] = ((char*)(&aux_int16))[1];
 218:source01.c    ****             
 219:source01.c    ****             for(k=0; k < packet_length; k++) {
 220:source01.c    ****             packet_data[k] = (uint8) single_packet[k]; 
 221:source01.c    ****         }
 222:source01.c    ****             c = 1;
 223:source01.c    ****             */
 224:source01.c    ****         
 225:source01.c    ****      
 226:source01.c    **** }
 491              		.loc 1 226 0
 492 0074 02B0     		add	sp, sp, #8
 493              		.cfi_def_cfa_offset 8
 494              		@ sp needed
 495 0076 10BD     		pop	{r4, pc}
 496              	.L31:
 497              		.align	2
 498              	.L30:
 499 0078 00000000 		.word	Accel
 500 007c 00000000 		.word	g_imuNew
 501 0080 00000000 		.word	Gyro
 502 0084 00000000 		.word	Temp
 503 0088 00000000 		.word	g_imu
 504              		.cfi_endproc
 505              	.LFE71:
 506              		.size	ReadIMU, .-ReadIMU
 507              		.comm	Temp,2,4
 508              		.comm	Gyro,6,4
 509              		.comm	Accel,6,4
 510              		.comm	g_imuNew,16,4
 511              		.comm	g_imu,16,4
ARM GAS  C:\Users\mgnocco\AppData\Local\Temp\cc0XtOQU.s 			page 14


 512              		.text
 513              	.Letext0:
 514              		.file 2 "c:\\program files (x86)\\cypress\\psoc creator\\4.4\\psoc creator\\import\\gnu\\arm\\5.4.
 515              		.file 3 "c:\\program files (x86)\\cypress\\psoc creator\\4.4\\psoc creator\\import\\gnu\\arm\\5.4.
 516              		.file 4 "Generated_Source\\PSoC5/cytypes.h"
 517              		.file 5 "globals.h"
 518              		.file 6 "Generated_Source\\PSoC5/core_cm3.h"
 519              		.file 7 "Generated_Source\\PSoC5/SPI_IMU.h"
 520              		.file 8 "Generated_Source\\PSoC5/CyLib.h"
 521              		.file 9 "Generated_Source\\PSoC5/UART.h"