ARM GAS  C:\Users\mgnocco\AppData\Local\Temp\ccuAxf7M.s 			page 1


   1              		.syntax unified
   2              		.cpu cortex-m3
   3              		.fpu softvfp
   4              		.eabi_attribute 20, 1
   5              		.eabi_attribute 21, 1
   6              		.eabi_attribute 23, 3
   7              		.eabi_attribute 24, 1
   8              		.eabi_attribute 25, 1
   9              		.eabi_attribute 26, 1
  10              		.eabi_attribute 30, 4
  11              		.eabi_attribute 34, 1
  12              		.eabi_attribute 18, 4
  13              		.thumb
  14              		.syntax unified
  15              		.file	"Acc.c"
  16              		.text
  17              	.Ltext0:
  18              		.cfi_sections	.debug_frame
  19              		.section	.text.Acc_Write,"ax",%progbits
  20              		.align	1
  21              		.global	Acc_Write
  22              		.thumb
  23              		.thumb_func
  24              		.type	Acc_Write, %function
  25              	Acc_Write:
  26              	.LFB0:
  27              		.file 1 "Generated_Source\\PSoC5\\Acc.c"
   1:Generated_Source\PSoC5/Acc.c **** /*******************************************************************************
   2:Generated_Source\PSoC5/Acc.c **** * File Name: Acc.c  
   3:Generated_Source\PSoC5/Acc.c **** * Version 2.20
   4:Generated_Source\PSoC5/Acc.c **** *
   5:Generated_Source\PSoC5/Acc.c **** * Description:
   6:Generated_Source\PSoC5/Acc.c **** *  This file contains API to enable firmware control of a Pins component.
   7:Generated_Source\PSoC5/Acc.c **** *
   8:Generated_Source\PSoC5/Acc.c **** * Note:
   9:Generated_Source\PSoC5/Acc.c **** *
  10:Generated_Source\PSoC5/Acc.c **** ********************************************************************************
  11:Generated_Source\PSoC5/Acc.c **** * Copyright 2008-2015, Cypress Semiconductor Corporation.  All rights reserved.
  12:Generated_Source\PSoC5/Acc.c **** * You may use this file only in accordance with the license, terms, conditions, 
  13:Generated_Source\PSoC5/Acc.c **** * disclaimers, and limitations in the end user license agreement accompanying 
  14:Generated_Source\PSoC5/Acc.c **** * the software package with which this file was provided.
  15:Generated_Source\PSoC5/Acc.c **** *******************************************************************************/
  16:Generated_Source\PSoC5/Acc.c **** 
  17:Generated_Source\PSoC5/Acc.c **** #include "cytypes.h"
  18:Generated_Source\PSoC5/Acc.c **** #include "Acc.h"
  19:Generated_Source\PSoC5/Acc.c **** 
  20:Generated_Source\PSoC5/Acc.c **** /* APIs are not generated for P15[7:6] on PSoC 5 */
  21:Generated_Source\PSoC5/Acc.c **** #if !(CY_PSOC5A &&\
  22:Generated_Source\PSoC5/Acc.c **** 	 Acc__PORT == 15 && ((Acc__MASK & 0xC0) != 0))
  23:Generated_Source\PSoC5/Acc.c **** 
  24:Generated_Source\PSoC5/Acc.c **** 
  25:Generated_Source\PSoC5/Acc.c **** /*******************************************************************************
  26:Generated_Source\PSoC5/Acc.c **** * Function Name: Acc_Write
  27:Generated_Source\PSoC5/Acc.c **** ****************************************************************************//**
  28:Generated_Source\PSoC5/Acc.c **** *
  29:Generated_Source\PSoC5/Acc.c **** * \brief Writes the value to the physical port (data output register), masking
  30:Generated_Source\PSoC5/Acc.c **** *  and shifting the bits appropriately. 
ARM GAS  C:\Users\mgnocco\AppData\Local\Temp\ccuAxf7M.s 			page 2


  31:Generated_Source\PSoC5/Acc.c **** *
  32:Generated_Source\PSoC5/Acc.c **** * The data output register controls the signal applied to the physical pin in 
  33:Generated_Source\PSoC5/Acc.c **** * conjunction with the drive mode parameter. This function avoids changing 
  34:Generated_Source\PSoC5/Acc.c **** * other bits in the port by using the appropriate method (read-modify-write or
  35:Generated_Source\PSoC5/Acc.c **** * bit banding).
  36:Generated_Source\PSoC5/Acc.c **** *
  37:Generated_Source\PSoC5/Acc.c **** * <b>Note</b> This function should not be used on a hardware digital output pin 
  38:Generated_Source\PSoC5/Acc.c **** * as it is driven by the hardware signal attached to it.
  39:Generated_Source\PSoC5/Acc.c **** *
  40:Generated_Source\PSoC5/Acc.c **** * \param value
  41:Generated_Source\PSoC5/Acc.c **** *  Value to write to the component instance.
  42:Generated_Source\PSoC5/Acc.c **** *
  43:Generated_Source\PSoC5/Acc.c **** * \return 
  44:Generated_Source\PSoC5/Acc.c **** *  None 
  45:Generated_Source\PSoC5/Acc.c **** *
  46:Generated_Source\PSoC5/Acc.c **** * \sideeffect
  47:Generated_Source\PSoC5/Acc.c **** *  If you use read-modify-write operations that are not atomic; the Interrupt 
  48:Generated_Source\PSoC5/Acc.c **** *  Service Routines (ISR) can cause corruption of this function. An ISR that 
  49:Generated_Source\PSoC5/Acc.c **** *  interrupts this function and performs writes to the Pins component data 
  50:Generated_Source\PSoC5/Acc.c **** *  register can cause corrupted port data. To avoid this issue, you should 
  51:Generated_Source\PSoC5/Acc.c **** *  either use the Per-Pin APIs (primary method) or disable interrupts around 
  52:Generated_Source\PSoC5/Acc.c **** *  this function.
  53:Generated_Source\PSoC5/Acc.c **** *
  54:Generated_Source\PSoC5/Acc.c **** * \funcusage
  55:Generated_Source\PSoC5/Acc.c **** *  \snippet Acc_SUT.c usage_Acc_Write
  56:Generated_Source\PSoC5/Acc.c **** *******************************************************************************/
  57:Generated_Source\PSoC5/Acc.c **** void Acc_Write(uint8 value)
  58:Generated_Source\PSoC5/Acc.c **** {
  28              		.loc 1 58 0
  29              		.cfi_startproc
  30              		@ args = 0, pretend = 0, frame = 0
  31              		@ frame_needed = 0, uses_anonymous_args = 0
  32              		@ link register save eliminated.
  33              	.LVL0:
  59:Generated_Source\PSoC5/Acc.c ****     uint8 staticBits = (Acc_DR & (uint8)(~Acc_MASK));
  34              		.loc 1 59 0
  35 0000 044A     		ldr	r2, .L2
  36 0002 1378     		ldrb	r3, [r2]	@ zero_extendqisi2
  37              	.LVL1:
  60:Generated_Source\PSoC5/Acc.c ****     Acc_DR = staticBits | ((uint8)(value << Acc_SHIFT) & Acc_MASK);
  38              		.loc 1 60 0
  39 0004 03F07F03 		and	r3, r3, #127
  40              	.LVL2:
  41 0008 43EAC010 		orr	r0, r3, r0, lsl #7
  42              	.LVL3:
  43 000c C0B2     		uxtb	r0, r0
  44 000e 1070     		strb	r0, [r2]
  45 0010 7047     		bx	lr
  46              	.L3:
  47 0012 00BF     		.align	2
  48              	.L2:
  49 0014 20510040 		.word	1073762592
  50              		.cfi_endproc
  51              	.LFE0:
  52              		.size	Acc_Write, .-Acc_Write
  53              		.section	.text.Acc_SetDriveMode,"ax",%progbits
  54              		.align	1
ARM GAS  C:\Users\mgnocco\AppData\Local\Temp\ccuAxf7M.s 			page 3


  55              		.global	Acc_SetDriveMode
  56              		.thumb
  57              		.thumb_func
  58              		.type	Acc_SetDriveMode, %function
  59              	Acc_SetDriveMode:
  60              	.LFB1:
  61:Generated_Source\PSoC5/Acc.c **** }
  62:Generated_Source\PSoC5/Acc.c **** 
  63:Generated_Source\PSoC5/Acc.c **** 
  64:Generated_Source\PSoC5/Acc.c **** /*******************************************************************************
  65:Generated_Source\PSoC5/Acc.c **** * Function Name: Acc_SetDriveMode
  66:Generated_Source\PSoC5/Acc.c **** ****************************************************************************//**
  67:Generated_Source\PSoC5/Acc.c **** *
  68:Generated_Source\PSoC5/Acc.c **** * \brief Sets the drive mode for each of the Pins component's pins.
  69:Generated_Source\PSoC5/Acc.c **** * 
  70:Generated_Source\PSoC5/Acc.c **** * <b>Note</b> This affects all pins in the Pins component instance. Use the
  71:Generated_Source\PSoC5/Acc.c **** * Per-Pin APIs if you wish to control individual pin's drive modes.
  72:Generated_Source\PSoC5/Acc.c **** *
  73:Generated_Source\PSoC5/Acc.c **** * \param mode
  74:Generated_Source\PSoC5/Acc.c **** *  Mode for the selected signals. Valid options are documented in 
  75:Generated_Source\PSoC5/Acc.c **** *  \ref driveMode.
  76:Generated_Source\PSoC5/Acc.c **** *
  77:Generated_Source\PSoC5/Acc.c **** * \return
  78:Generated_Source\PSoC5/Acc.c **** *  None
  79:Generated_Source\PSoC5/Acc.c **** *
  80:Generated_Source\PSoC5/Acc.c **** * \sideeffect
  81:Generated_Source\PSoC5/Acc.c **** *  If you use read-modify-write operations that are not atomic, the ISR can
  82:Generated_Source\PSoC5/Acc.c **** *  cause corruption of this function. An ISR that interrupts this function 
  83:Generated_Source\PSoC5/Acc.c **** *  and performs writes to the Pins component Drive Mode registers can cause 
  84:Generated_Source\PSoC5/Acc.c **** *  corrupted port data. To avoid this issue, you should either use the Per-Pin
  85:Generated_Source\PSoC5/Acc.c **** *  APIs (primary method) or disable interrupts around this function.
  86:Generated_Source\PSoC5/Acc.c **** *
  87:Generated_Source\PSoC5/Acc.c **** * \funcusage
  88:Generated_Source\PSoC5/Acc.c **** *  \snippet Acc_SUT.c usage_Acc_SetDriveMode
  89:Generated_Source\PSoC5/Acc.c **** *******************************************************************************/
  90:Generated_Source\PSoC5/Acc.c **** void Acc_SetDriveMode(uint8 mode)
  91:Generated_Source\PSoC5/Acc.c **** {
  61              		.loc 1 91 0
  62              		.cfi_startproc
  63              		@ args = 0, pretend = 0, frame = 0
  64              		@ frame_needed = 0, uses_anonymous_args = 0
  65              		@ link register save eliminated.
  66              	.LVL4:
  92:Generated_Source\PSoC5/Acc.c **** 	CyPins_SetPinDriveMode(Acc_0, mode);
  67              		.loc 1 92 0
  68 0000 044A     		ldr	r2, .L5
  69 0002 00F00E00 		and	r0, r0, #14
  70              	.LVL5:
  71 0006 1378     		ldrb	r3, [r2]	@ zero_extendqisi2
  72 0008 03F0F103 		and	r3, r3, #241
  73 000c 1843     		orrs	r0, r0, r3
  74 000e 1070     		strb	r0, [r2]
  75 0010 7047     		bx	lr
  76              	.L6:
  77 0012 00BF     		.align	2
  78              	.L5:
  79 0014 17500040 		.word	1073762327
ARM GAS  C:\Users\mgnocco\AppData\Local\Temp\ccuAxf7M.s 			page 4


  80              		.cfi_endproc
  81              	.LFE1:
  82              		.size	Acc_SetDriveMode, .-Acc_SetDriveMode
  83              		.section	.text.Acc_Read,"ax",%progbits
  84              		.align	1
  85              		.global	Acc_Read
  86              		.thumb
  87              		.thumb_func
  88              		.type	Acc_Read, %function
  89              	Acc_Read:
  90              	.LFB2:
  93:Generated_Source\PSoC5/Acc.c **** }
  94:Generated_Source\PSoC5/Acc.c **** 
  95:Generated_Source\PSoC5/Acc.c **** 
  96:Generated_Source\PSoC5/Acc.c **** /*******************************************************************************
  97:Generated_Source\PSoC5/Acc.c **** * Function Name: Acc_Read
  98:Generated_Source\PSoC5/Acc.c **** ****************************************************************************//**
  99:Generated_Source\PSoC5/Acc.c **** *
 100:Generated_Source\PSoC5/Acc.c **** * \brief Reads the associated physical port (pin status register) and masks 
 101:Generated_Source\PSoC5/Acc.c **** *  the required bits according to the width and bit position of the component
 102:Generated_Source\PSoC5/Acc.c **** *  instance. 
 103:Generated_Source\PSoC5/Acc.c **** *
 104:Generated_Source\PSoC5/Acc.c **** * The pin's status register returns the current logic level present on the 
 105:Generated_Source\PSoC5/Acc.c **** * physical pin.
 106:Generated_Source\PSoC5/Acc.c **** *
 107:Generated_Source\PSoC5/Acc.c **** * \return 
 108:Generated_Source\PSoC5/Acc.c **** *  The current value for the pins in the component as a right justified number.
 109:Generated_Source\PSoC5/Acc.c **** *
 110:Generated_Source\PSoC5/Acc.c **** * \funcusage
 111:Generated_Source\PSoC5/Acc.c **** *  \snippet Acc_SUT.c usage_Acc_Read  
 112:Generated_Source\PSoC5/Acc.c **** *******************************************************************************/
 113:Generated_Source\PSoC5/Acc.c **** uint8 Acc_Read(void)
 114:Generated_Source\PSoC5/Acc.c **** {
  91              		.loc 1 114 0
  92              		.cfi_startproc
  93              		@ args = 0, pretend = 0, frame = 0
  94              		@ frame_needed = 0, uses_anonymous_args = 0
  95              		@ link register save eliminated.
 115:Generated_Source\PSoC5/Acc.c ****     return (Acc_PS & Acc_MASK) >> Acc_SHIFT;
  96              		.loc 1 115 0
  97 0000 014B     		ldr	r3, .L8
  98 0002 1878     		ldrb	r0, [r3]	@ zero_extendqisi2
 116:Generated_Source\PSoC5/Acc.c **** }
  99              		.loc 1 116 0
 100 0004 C009     		lsrs	r0, r0, #7
 101 0006 7047     		bx	lr
 102              	.L9:
 103              		.align	2
 104              	.L8:
 105 0008 21510040 		.word	1073762593
 106              		.cfi_endproc
 107              	.LFE2:
 108              		.size	Acc_Read, .-Acc_Read
 109              		.section	.text.Acc_ReadDataReg,"ax",%progbits
 110              		.align	1
 111              		.global	Acc_ReadDataReg
 112              		.thumb
ARM GAS  C:\Users\mgnocco\AppData\Local\Temp\ccuAxf7M.s 			page 5


 113              		.thumb_func
 114              		.type	Acc_ReadDataReg, %function
 115              	Acc_ReadDataReg:
 116              	.LFB3:
 117:Generated_Source\PSoC5/Acc.c **** 
 118:Generated_Source\PSoC5/Acc.c **** 
 119:Generated_Source\PSoC5/Acc.c **** /*******************************************************************************
 120:Generated_Source\PSoC5/Acc.c **** * Function Name: Acc_ReadDataReg
 121:Generated_Source\PSoC5/Acc.c **** ****************************************************************************//**
 122:Generated_Source\PSoC5/Acc.c **** *
 123:Generated_Source\PSoC5/Acc.c **** * \brief Reads the associated physical port's data output register and masks 
 124:Generated_Source\PSoC5/Acc.c **** *  the correct bits according to the width and bit position of the component 
 125:Generated_Source\PSoC5/Acc.c **** *  instance. 
 126:Generated_Source\PSoC5/Acc.c **** *
 127:Generated_Source\PSoC5/Acc.c **** * The data output register controls the signal applied to the physical pin in 
 128:Generated_Source\PSoC5/Acc.c **** * conjunction with the drive mode parameter. This is not the same as the 
 129:Generated_Source\PSoC5/Acc.c **** * preferred Acc_Read() API because the 
 130:Generated_Source\PSoC5/Acc.c **** * Acc_ReadDataReg() reads the data register instead of the status 
 131:Generated_Source\PSoC5/Acc.c **** * register. For output pins this is a useful function to determine the value 
 132:Generated_Source\PSoC5/Acc.c **** * just written to the pin.
 133:Generated_Source\PSoC5/Acc.c **** *
 134:Generated_Source\PSoC5/Acc.c **** * \return 
 135:Generated_Source\PSoC5/Acc.c **** *  The current value of the data register masked and shifted into a right 
 136:Generated_Source\PSoC5/Acc.c **** *  justified number for the component instance.
 137:Generated_Source\PSoC5/Acc.c **** *
 138:Generated_Source\PSoC5/Acc.c **** * \funcusage
 139:Generated_Source\PSoC5/Acc.c **** *  \snippet Acc_SUT.c usage_Acc_ReadDataReg 
 140:Generated_Source\PSoC5/Acc.c **** *******************************************************************************/
 141:Generated_Source\PSoC5/Acc.c **** uint8 Acc_ReadDataReg(void)
 142:Generated_Source\PSoC5/Acc.c **** {
 117              		.loc 1 142 0
 118              		.cfi_startproc
 119              		@ args = 0, pretend = 0, frame = 0
 120              		@ frame_needed = 0, uses_anonymous_args = 0
 121              		@ link register save eliminated.
 143:Generated_Source\PSoC5/Acc.c ****     return (Acc_DR & Acc_MASK) >> Acc_SHIFT;
 122              		.loc 1 143 0
 123 0000 014B     		ldr	r3, .L11
 124 0002 1878     		ldrb	r0, [r3]	@ zero_extendqisi2
 144:Generated_Source\PSoC5/Acc.c **** }
 125              		.loc 1 144 0
 126 0004 C009     		lsrs	r0, r0, #7
 127 0006 7047     		bx	lr
 128              	.L12:
 129              		.align	2
 130              	.L11:
 131 0008 20510040 		.word	1073762592
 132              		.cfi_endproc
 133              	.LFE3:
 134              		.size	Acc_ReadDataReg, .-Acc_ReadDataReg
 135              		.section	.text.Acc_SetInterruptMode,"ax",%progbits
 136              		.align	1
 137              		.global	Acc_SetInterruptMode
 138              		.thumb
 139              		.thumb_func
 140              		.type	Acc_SetInterruptMode, %function
 141              	Acc_SetInterruptMode:
ARM GAS  C:\Users\mgnocco\AppData\Local\Temp\ccuAxf7M.s 			page 6


 142              	.LFB4:
 145:Generated_Source\PSoC5/Acc.c **** 
 146:Generated_Source\PSoC5/Acc.c **** 
 147:Generated_Source\PSoC5/Acc.c **** /* If interrupt is connected for this Pins component */ 
 148:Generated_Source\PSoC5/Acc.c **** #if defined(Acc_INTSTAT) 
 149:Generated_Source\PSoC5/Acc.c **** 
 150:Generated_Source\PSoC5/Acc.c ****     /*******************************************************************************
 151:Generated_Source\PSoC5/Acc.c ****     * Function Name: Acc_SetInterruptMode
 152:Generated_Source\PSoC5/Acc.c ****     ****************************************************************************//**
 153:Generated_Source\PSoC5/Acc.c ****     *
 154:Generated_Source\PSoC5/Acc.c ****     * \brief Configures the interrupt mode for each of the Pins component's
 155:Generated_Source\PSoC5/Acc.c ****     *  pins. Alternatively you may set the interrupt mode for all the pins
 156:Generated_Source\PSoC5/Acc.c ****     *  specified in the Pins component.
 157:Generated_Source\PSoC5/Acc.c ****     *
 158:Generated_Source\PSoC5/Acc.c ****     *  <b>Note</b> The interrupt is port-wide and therefore any enabled pin
 159:Generated_Source\PSoC5/Acc.c ****     *  interrupt may trigger it.
 160:Generated_Source\PSoC5/Acc.c ****     *
 161:Generated_Source\PSoC5/Acc.c ****     * \param position
 162:Generated_Source\PSoC5/Acc.c ****     *  The pin position as listed in the Pins component. You may OR these to be 
 163:Generated_Source\PSoC5/Acc.c ****     *  able to configure the interrupt mode of multiple pins within a Pins 
 164:Generated_Source\PSoC5/Acc.c ****     *  component. Or you may use Acc_INTR_ALL to configure the
 165:Generated_Source\PSoC5/Acc.c ****     *  interrupt mode of all the pins in the Pins component.       
 166:Generated_Source\PSoC5/Acc.c ****     *  - Acc_0_INTR       (First pin in the list)
 167:Generated_Source\PSoC5/Acc.c ****     *  - Acc_1_INTR       (Second pin in the list)
 168:Generated_Source\PSoC5/Acc.c ****     *  - ...
 169:Generated_Source\PSoC5/Acc.c ****     *  - Acc_INTR_ALL     (All pins in Pins component)
 170:Generated_Source\PSoC5/Acc.c ****     *
 171:Generated_Source\PSoC5/Acc.c ****     * \param mode
 172:Generated_Source\PSoC5/Acc.c ****     *  Interrupt mode for the selected pins. Valid options are documented in
 173:Generated_Source\PSoC5/Acc.c ****     *  \ref intrMode.
 174:Generated_Source\PSoC5/Acc.c ****     *
 175:Generated_Source\PSoC5/Acc.c ****     * \return 
 176:Generated_Source\PSoC5/Acc.c ****     *  None
 177:Generated_Source\PSoC5/Acc.c ****     *  
 178:Generated_Source\PSoC5/Acc.c ****     * \sideeffect
 179:Generated_Source\PSoC5/Acc.c ****     *  It is recommended that the interrupt be disabled before calling this 
 180:Generated_Source\PSoC5/Acc.c ****     *  function to avoid unintended interrupt requests. Note that the interrupt
 181:Generated_Source\PSoC5/Acc.c ****     *  type is port wide, and therefore will trigger for any enabled pin on the 
 182:Generated_Source\PSoC5/Acc.c ****     *  port.
 183:Generated_Source\PSoC5/Acc.c ****     *
 184:Generated_Source\PSoC5/Acc.c ****     * \funcusage
 185:Generated_Source\PSoC5/Acc.c ****     *  \snippet Acc_SUT.c usage_Acc_SetInterruptMode
 186:Generated_Source\PSoC5/Acc.c ****     *******************************************************************************/
 187:Generated_Source\PSoC5/Acc.c ****     void Acc_SetInterruptMode(uint16 position, uint16 mode)
 188:Generated_Source\PSoC5/Acc.c ****     {
 143              		.loc 1 188 0
 144              		.cfi_startproc
 145              		@ args = 0, pretend = 0, frame = 0
 146              		@ frame_needed = 0, uses_anonymous_args = 0
 147              		@ link register save eliminated.
 148              	.LVL6:
 189:Generated_Source\PSoC5/Acc.c **** 		if((position & Acc_0_INTR) != 0u) 
 149              		.loc 1 189 0
 150 0000 0306     		lsls	r3, r0, #24
 190:Generated_Source\PSoC5/Acc.c **** 		{ 
 191:Generated_Source\PSoC5/Acc.c **** 			 Acc_0_INTTYPE_REG = (uint8)mode; 
 151              		.loc 1 191 0
ARM GAS  C:\Users\mgnocco\AppData\Local\Temp\ccuAxf7M.s 			page 7


 152 0002 42BF     		ittt	mi
 153 0004 014B     		ldrmi	r3, .L18
 154 0006 C9B2     		uxtbmi	r1, r1
 155              	.LVL7:
 156 0008 1970     		strbmi	r1, [r3]
 157 000a 7047     		bx	lr
 158              	.L19:
 159              		.align	2
 160              	.L18:
 161 000c 17450040 		.word	1073759511
 162              		.cfi_endproc
 163              	.LFE4:
 164              		.size	Acc_SetInterruptMode, .-Acc_SetInterruptMode
 165              		.section	.text.Acc_ClearInterrupt,"ax",%progbits
 166              		.align	1
 167              		.global	Acc_ClearInterrupt
 168              		.thumb
 169              		.thumb_func
 170              		.type	Acc_ClearInterrupt, %function
 171              	Acc_ClearInterrupt:
 172              	.LFB5:
 192:Generated_Source\PSoC5/Acc.c **** 		}
 193:Generated_Source\PSoC5/Acc.c ****     }
 194:Generated_Source\PSoC5/Acc.c ****     
 195:Generated_Source\PSoC5/Acc.c ****     
 196:Generated_Source\PSoC5/Acc.c ****     /*******************************************************************************
 197:Generated_Source\PSoC5/Acc.c ****     * Function Name: Acc_ClearInterrupt
 198:Generated_Source\PSoC5/Acc.c ****     ****************************************************************************//**
 199:Generated_Source\PSoC5/Acc.c ****     *
 200:Generated_Source\PSoC5/Acc.c ****     * \brief Clears any active interrupts attached with the component and returns 
 201:Generated_Source\PSoC5/Acc.c ****     *  the value of the interrupt status register allowing determination of which
 202:Generated_Source\PSoC5/Acc.c ****     *  pins generated an interrupt event.
 203:Generated_Source\PSoC5/Acc.c ****     *
 204:Generated_Source\PSoC5/Acc.c ****     * \return 
 205:Generated_Source\PSoC5/Acc.c ****     *  The right-shifted current value of the interrupt status register. Each pin 
 206:Generated_Source\PSoC5/Acc.c ****     *  has one bit set if it generated an interrupt event. For example, bit 0 is 
 207:Generated_Source\PSoC5/Acc.c ****     *  for pin 0 and bit 1 is for pin 1 of the Pins component.
 208:Generated_Source\PSoC5/Acc.c ****     *  
 209:Generated_Source\PSoC5/Acc.c ****     * \sideeffect
 210:Generated_Source\PSoC5/Acc.c ****     *  Clears all bits of the physical port's interrupt status register, not just
 211:Generated_Source\PSoC5/Acc.c ****     *  those associated with the Pins component.
 212:Generated_Source\PSoC5/Acc.c ****     *
 213:Generated_Source\PSoC5/Acc.c ****     * \funcusage
 214:Generated_Source\PSoC5/Acc.c ****     *  \snippet Acc_SUT.c usage_Acc_ClearInterrupt
 215:Generated_Source\PSoC5/Acc.c ****     *******************************************************************************/
 216:Generated_Source\PSoC5/Acc.c ****     uint8 Acc_ClearInterrupt(void)
 217:Generated_Source\PSoC5/Acc.c ****     {
 173              		.loc 1 217 0
 174              		.cfi_startproc
 175              		@ args = 0, pretend = 0, frame = 0
 176              		@ frame_needed = 0, uses_anonymous_args = 0
 177              		@ link register save eliminated.
 218:Generated_Source\PSoC5/Acc.c ****         return (Acc_INTSTAT & Acc_MASK) >> Acc_SHIFT;
 178              		.loc 1 218 0
 179 0000 014B     		ldr	r3, .L21
 180 0002 1878     		ldrb	r0, [r3]	@ zero_extendqisi2
 219:Generated_Source\PSoC5/Acc.c ****     }
ARM GAS  C:\Users\mgnocco\AppData\Local\Temp\ccuAxf7M.s 			page 8


 181              		.loc 1 219 0
 182 0004 C009     		lsrs	r0, r0, #7
 183 0006 7047     		bx	lr
 184              	.L22:
 185              		.align	2
 186              	.L21:
 187 0008 82450040 		.word	1073759618
 188              		.cfi_endproc
 189              	.LFE5:
 190              		.size	Acc_ClearInterrupt, .-Acc_ClearInterrupt
 191              		.text
 192              	.Letext0:
 193              		.file 2 "Generated_Source\\PSoC5\\cytypes.h"