ARM GAS  C:\Users\mgnocco\AppData\Local\Temp\ccglknTZ.s 			page 1


   1              		.syntax unified
   2              		.cpu cortex-m3
   3              		.fpu softvfp
   4              		.eabi_attribute 20, 1
   5              		.eabi_attribute 21, 1
   6              		.eabi_attribute 23, 3
   7              		.eabi_attribute 24, 1
   8              		.eabi_attribute 25, 1
   9              		.eabi_attribute 26, 1
  10              		.eabi_attribute 30, 4
  11              		.eabi_attribute 34, 1
  12              		.eabi_attribute 18, 4
  13              		.thumb
  14              		.syntax unified
  15              		.file	"interrupts.c"
  16              		.text
  17              	.Ltext0:
  18              		.cfi_sections	.debug_frame
  19              		.section	.text.isr_Acc_Handler,"ax",%progbits
  20              		.align	1
  21              		.global	isr_Acc_Handler
  22              		.thumb
  23              		.thumb_func
  24              		.type	isr_Acc_Handler, %function
  25              	isr_Acc_Handler:
  26              	.LFB63:
  27              		.file 1 "interrupts.c"
   1:interrupts.c  **** /* ========================================
   2:interrupts.c  ****  *
   3:interrupts.c  ****  * Copyright YOUR COMPANY, THE YEAR
   4:interrupts.c  ****  * All Rights Reserved
   5:interrupts.c  ****  * UNPUBLISHED, LICENSED SOFTWARE.
   6:interrupts.c  ****  *
   7:interrupts.c  ****  * CONFIDENTIAL AND PROPRIETARY INFORMATION
   8:interrupts.c  ****  * WHICH IS THE PROPERTY OF your company.
   9:interrupts.c  ****  *
  10:interrupts.c  ****  * ========================================
  11:interrupts.c  **** */
  12:interrupts.c  **** #include "interrupts.h"
  13:interrupts.c  **** #include "globals.h"
  14:interrupts.c  **** CY_ISR(isr_Acc_Handler){
  28              		.loc 1 14 0
  29              		.cfi_startproc
  30              		@ args = 0, pretend = 0, frame = 0
  31              		@ frame_needed = 0, uses_anonymous_args = 0
  32 0000 08B5     		push	{r3, lr}
  33              		.cfi_def_cfa_offset 8
  34              		.cfi_offset 3, -8
  35              		.cfi_offset 14, -4
  15:interrupts.c  **** flag_int=1;
  36              		.loc 1 15 0
  37 0002 084B     		ldr	r3, .L2
  38 0004 0120     		movs	r0, #1
  39 0006 1870     		strb	r0, [r3]
  16:interrupts.c  ****    
  17:interrupts.c  ****     // Set cycles interrupt flag
  18:interrupts.c  ****     LED_Write(1);
ARM GAS  C:\Users\mgnocco\AppData\Local\Temp\ccglknTZ.s 			page 2


  40              		.loc 1 18 0
  41 0008 FFF7FEFF 		bl	LED_Write
  42              	.LVL0:
  19:interrupts.c  ****     CyDelay(5);
  43              		.loc 1 19 0
  44 000c 0520     		movs	r0, #5
  45 000e FFF7FEFF 		bl	CyDelay
  46              	.LVL1:
  20:interrupts.c  **** LED_Write(0);
  47              		.loc 1 20 0
  48 0012 0020     		movs	r0, #0
  49 0014 FFF7FEFF 		bl	LED_Write
  50              	.LVL2:
  21:interrupts.c  **** CyDelay(50);
  22:interrupts.c  **** 
  23:interrupts.c  **** }
  51              		.loc 1 23 0
  52 0018 BDE80840 		pop	{r3, lr}
  53              		.cfi_restore 14
  54              		.cfi_restore 3
  55              		.cfi_def_cfa_offset 0
  21:interrupts.c  **** CyDelay(50);
  56              		.loc 1 21 0
  57 001c 3220     		movs	r0, #50
  58 001e FFF7FEBF 		b	CyDelay
  59              	.LVL3:
  60              	.L3:
  61 0022 00BF     		.align	2
  62              	.L2:
  63 0024 00000000 		.word	flag_int
  64              		.cfi_endproc
  65              	.LFE63:
  66              		.size	isr_Acc_Handler, .-isr_Acc_Handler
  67              		.section	.text.isr_Gyro_Handler,"ax",%progbits
  68              		.align	1
  69              		.global	isr_Gyro_Handler
  70              		.thumb
  71              		.thumb_func
  72              		.type	isr_Gyro_Handler, %function
  73              	isr_Gyro_Handler:
  74              	.LFB64:
  24:interrupts.c  **** 
  25:interrupts.c  **** CY_ISR(isr_Gyro_Handler){
  75              		.loc 1 25 0
  76              		.cfi_startproc
  77              		@ args = 0, pretend = 0, frame = 0
  78              		@ frame_needed = 0, uses_anonymous_args = 0
  79              		@ link register save eliminated.
  80 0000 7047     		bx	lr
  81              		.cfi_endproc
  82              	.LFE64:
  83              		.size	isr_Gyro_Handler, .-isr_Gyro_Handler
  84              		.text
  85              	.Letext0:
  86              		.file 2 "c:\\program files (x86)\\cypress\\psoc creator\\4.4\\psoc creator\\import\\gnu\\arm\\5.4.
  87              		.file 3 "c:\\program files (x86)\\cypress\\psoc creator\\4.4\\psoc creator\\import\\gnu\\arm\\5.4.
  88              		.file 4 "Generated_Source\\PSoC5/cytypes.h"
ARM GAS  C:\Users\mgnocco\AppData\Local\Temp\ccglknTZ.s 			page 3


  89              		.file 5 "Generated_Source\\PSoC5/core_cm3.h"
  90              		.file 6 "globals.h"
  91              		.file 7 "Generated_Source\\PSoC5/LED.h"
  92              		.file 8 "Generated_Source\\PSoC5/CyLib.h"