ARM GAS  C:\Users\mgnocco\AppData\Local\Temp\ccVnpVD9.s 			page 1


   1              		.syntax unified
   2              		.cpu cortex-m3
   3              		.fpu softvfp
   4              		.eabi_attribute 20, 1
   5              		.eabi_attribute 21, 1
   6              		.eabi_attribute 23, 3
   7              		.eabi_attribute 24, 1
   8              		.eabi_attribute 25, 1
   9              		.eabi_attribute 26, 1
  10              		.eabi_attribute 30, 4
  11              		.eabi_attribute 34, 1
  12              		.eabi_attribute 18, 4
  13              		.thumb
  14              		.syntax unified
  15              		.file	"main.c"
  16              		.text
  17              	.Ltext0:
  18              		.cfi_sections	.debug_frame
  19              		.section	.text.startup.main,"ax",%progbits
  20              		.align	1
  21              		.global	main
  22              		.thumb
  23              		.thumb_func
  24              		.type	main, %function
  25              	main:
  26              	.LFB64:
  27              		.file 1 "main.c"
   1:main.c        **** /* ========================================
   2:main.c        ****  *
   3:main.c        ****  * Copyright YOUR COMPANY, THE YEAR
   4:main.c        ****  * All Rights Reserved
   5:main.c        ****  * UNPUBLISHED, LICENSED SOFTWARE.
   6:main.c        ****  *
   7:main.c        ****  * CONFIDENTIAL AND PROPRIETARY INFORMATION
   8:main.c        ****  * WHICH IS THE PROPERTY OF your company.
   9:main.c        ****  *
  10:main.c        ****  * ========================================
  11:main.c        **** */
  12:main.c        **** 
  13:main.c        **** #include "header01.h"
  14:main.c        **** #include "globals.h"
  15:main.c        **** #include <project.h>
  16:main.c        **** int IMU_ack;
  17:main.c        **** 
  18:main.c        **** //uint8 SensorHub[6] = {LSM6DSRX_SENSOR_HUB_1, LSM6DSRX_SENSOR_HUB_2, LSM6DSRX_SENSOR_HUB_3, LSM6DS
  19:main.c        **** struct st_imu_data g_imu, g_imuNew;
  20:main.c        **** uint8 Mag[2][10][6];
  21:main.c        **** uint8 Accel[2][10][6];
  22:main.c        **** uint8 Gyro[2][10][6];
  23:main.c        **** uint8 Temp[2];
  24:main.c        **** uint8 GDA;
  25:main.c        **** uint8 XLDA;
  26:main.c        **** uint8 SENS_HUB_ENDOP;
  27:main.c        **** uint16 t0;
  28:main.c        **** uint16 t1;
  29:main.c        **** uint16 tempo[10];
  30:main.c        **** uint8 j;
ARM GAS  C:\Users\mgnocco\AppData\Local\Temp\ccVnpVD9.s 			page 2


  31:main.c        **** uint8 count;
  32:main.c        **** uint8 k;
  33:main.c        **** uint8 var;
  34:main.c        **** 
  35:main.c        **** int main()
  36:main.c        **** {   MY_TIMER_Start();                 
  28              		.loc 1 36 0
  29              		.cfi_startproc
  30              		@ args = 0, pretend = 0, frame = 8
  31              		@ frame_needed = 0, uses_anonymous_args = 0
  32 0000 2DE9F74F 		push	{r0, r1, r2, r4, r5, r6, r7, r8, r9, r10, fp, lr}
  33              		.cfi_def_cfa_offset 48
  34              		.cfi_offset 4, -36
  35              		.cfi_offset 5, -32
  36              		.cfi_offset 6, -28
  37              		.cfi_offset 7, -24
  38              		.cfi_offset 8, -20
  39              		.cfi_offset 9, -16
  40              		.cfi_offset 10, -12
  41              		.cfi_offset 11, -8
  42              		.cfi_offset 14, -4
  43              		.loc 1 36 0
  44 0004 FFF7FEFF 		bl	MY_TIMER_Start
  45              	.LVL0:
  37:main.c        ****     PACER_TIMER_Start();    
  46              		.loc 1 37 0
  47 0008 FFF7FEFF 		bl	PACER_TIMER_Start
  48              	.LVL1:
  38:main.c        ****     SPI_IMU_Start();
  49              		.loc 1 38 0
  50 000c FFF7FEFF 		bl	SPI_IMU_Start
  51              	.LVL2:
  39:main.c        **** 	SPI_IMU_Init();
  52              		.loc 1 39 0
  53 0010 FFF7FEFF 		bl	SPI_IMU_Init
  54              	.LVL3:
  40:main.c        **** 	SPI_IMU_Enable();
  55              		.loc 1 40 0
  56 0014 FFF7FEFF 		bl	SPI_IMU_Enable
  57              	.LVL4:
  41:main.c        **** 	SPI_IMU_ClearRxBuffer();
  58              		.loc 1 41 0
  59 0018 FFF7FEFF 		bl	SPI_IMU_ClearRxBuffer
  60              	.LVL5:
  42:main.c        **** 	SPI_IMU_ClearTxBuffer();
  61              		.loc 1 42 0
  62 001c FFF7FEFF 		bl	SPI_IMU_ClearTxBuffer
  63              	.LVL6:
  43:main.c        **** 	SPI_IMU_ClearFIFO();							
  64              		.loc 1 43 0
  65 0020 FFF7FEFF 		bl	SPI_IMU_ClearFIFO
  66              	.LVL7:
  44:main.c        ****     CyDelay(10);
  67              		.loc 1 44 0
  68 0024 0A20     		movs	r0, #10
  69 0026 FFF7FEFF 		bl	CyDelay
  70              	.LVL8:
ARM GAS  C:\Users\mgnocco\AppData\Local\Temp\ccVnpVD9.s 			page 3


  45:main.c        ****   
  46:main.c        ****     CyGlobalIntEnable;
  71              		.loc 1 46 0
  72              		.syntax unified
  73              	@ 46 "main.c" 1
  74 002a 62B6     		CPSIE   i
  75              	@ 0 "" 2
  47:main.c        ****     
  48:main.c        ****     uint8 i;
  49:main.c        ****     uint8 who;
  50:main.c        ****     UART_Start();
  51:main.c        ****     Control_Reg_1_Write(0);
  52:main.c        ****     for (k=0;k<1; k++){
  76              		.loc 1 52 0
  77              		.thumb
  78              		.syntax unified
  79 002c B04C     		ldr	r4, .L37
  50:main.c        ****     Control_Reg_1_Write(0);
  80              		.loc 1 50 0
  81 002e FFF7FEFF 		bl	UART_Start
  82              	.LVL9:
  83              		.loc 1 52 0
  84 0032 2646     		mov	r6, r4
  51:main.c        ****     for (k=0;k<1; k++){
  85              		.loc 1 51 0
  86 0034 0020     		movs	r0, #0
  87 0036 FFF7FEFF 		bl	Control_Reg_1_Write
  88              	.LVL10:
  89              		.loc 1 52 0
  90 003a 0023     		movs	r3, #0
  91 003c 2370     		strb	r3, [r4]
  92              	.L2:
  93              		.loc 1 52 0 is_stmt 0 discriminator 1
  94 003e 2578     		ldrb	r5, [r4]	@ zero_extendqisi2
  95 0040 C5BB     		cbnz	r5, .L33
  53:main.c        ****     Control_Reg_1_Write(0);
  96              		.loc 1 53 0 is_stmt 1 discriminator 3
  97 0042 2846     		mov	r0, r5
  98 0044 FFF7FEFF 		bl	Control_Reg_1_Write
  99              	.LVL11:
  54:main.c        ****     WriteControlRegisterSPI(LSM6DSRX_CTRL1_XL,0xA0); //104 Hz (normal mode)
 100              		.loc 1 54 0 discriminator 3
 101 0048 A021     		movs	r1, #160
 102 004a 1020     		movs	r0, #16
 103 004c FFF7FEFF 		bl	WriteControlRegisterSPI
 104              	.LVL12:
  55:main.c        ****     WriteControlRegisterSPI(LSM6DSRX_CTRL3_C,0x40); //104 Hz (normal mode)
 105              		.loc 1 55 0 discriminator 3
 106 0050 4021     		movs	r1, #64
 107 0052 1220     		movs	r0, #18
 108 0054 FFF7FEFF 		bl	WriteControlRegisterSPI
 109              	.LVL13:
  56:main.c        ****     CyDelay(1);
 110              		.loc 1 56 0 discriminator 3
 111 0058 0120     		movs	r0, #1
 112 005a FFF7FEFF 		bl	CyDelay
 113              	.LVL14:
ARM GAS  C:\Users\mgnocco\AppData\Local\Temp\ccVnpVD9.s 			page 4


  57:main.c        ****     WriteControlRegisterSPI(LSM6DSRX_CTRL2_G,0xA0); //104 Hz (normal mode)   
 114              		.loc 1 57 0 discriminator 3
 115 005e A021     		movs	r1, #160
 116 0060 1120     		movs	r0, #17
 117 0062 FFF7FEFF 		bl	WriteControlRegisterSPI
 118              	.LVL15:
  58:main.c        ****     
  59:main.c        ****    // WriteControlRegisterSPI(LSM6DSRX_FUNC_CFG_ACCESS, 0x00);
  60:main.c        ****     CyDelay(100);
 119              		.loc 1 60 0 discriminator 3
 120 0066 6420     		movs	r0, #100
 121 0068 FFF7FEFF 		bl	CyDelay
 122              	.LVL16:
  61:main.c        ****     OneShot_ReadRoutine(EXT_SENS_ADDR,LIS2MDL_WHO_AM_I); //LIS2MDL -->valore WHO_AM_I = 64
 123              		.loc 1 61 0 discriminator 3
 124 006c 4F21     		movs	r1, #79
 125 006e 3C20     		movs	r0, #60
 126 0070 FFF7FEFF 		bl	OneShot_ReadRoutine
 127              	.LVL17:
  62:main.c        ****     OneShot_WriteRoutine(EXT_SENS_ADDR,LIS2MDL_CFG_REG_A,0x00); //
 128              		.loc 1 62 0 discriminator 3
 129 0074 2A46     		mov	r2, r5
 130 0076 6021     		movs	r1, #96
 131 0078 3C20     		movs	r0, #60
 132 007a FFF7FEFF 		bl	OneShot_WriteRoutine
 133              	.LVL18:
  63:main.c        ****     CyDelay(1);
 134              		.loc 1 63 0 discriminator 3
 135 007e 0120     		movs	r0, #1
 136 0080 FFF7FEFF 		bl	CyDelay
 137              	.LVL19:
  64:main.c        ****     OneShot_WriteRoutine(EXT_SENS_ADDR,LIS2MDL_CFG_REG_A,0x00); //
 138              		.loc 1 64 0 discriminator 3
 139 0084 2A46     		mov	r2, r5
 140 0086 6021     		movs	r1, #96
 141 0088 3C20     		movs	r0, #60
 142 008a FFF7FEFF 		bl	OneShot_WriteRoutine
 143              	.LVL20:
  65:main.c        ****     OneShot_WriteRoutine(EXT_SENS_ADDR,LIS2MDL_CFG_REG_B,0x02);
 144              		.loc 1 65 0 discriminator 3
 145 008e 0222     		movs	r2, #2
 146 0090 6121     		movs	r1, #97
 147 0092 3C20     		movs	r0, #60
 148 0094 FFF7FEFF 		bl	OneShot_WriteRoutine
 149              	.LVL21:
  66:main.c        ****     OneShot_WriteRoutine(EXT_SENS_ADDR,LIS2MDL_CFG_REG_C,0x10);
 150              		.loc 1 66 0 discriminator 3
 151 0098 1022     		movs	r2, #16
 152 009a 6221     		movs	r1, #98
 153 009c 3C20     		movs	r0, #60
 154 009e FFF7FEFF 		bl	OneShot_WriteRoutine
 155              	.LVL22:
  67:main.c        ****     Continuous_ReadRoutine(EXT_SENS_ADDR,LIS2MDL_OUTX_L_REG,0x06);
 156              		.loc 1 67 0 discriminator 3
 157 00a2 0622     		movs	r2, #6
 158 00a4 6821     		movs	r1, #104
 159 00a6 3C20     		movs	r0, #60
ARM GAS  C:\Users\mgnocco\AppData\Local\Temp\ccVnpVD9.s 			page 5


 160 00a8 FFF7FEFF 		bl	Continuous_ReadRoutine
 161              	.LVL23:
  52:main.c        ****     Control_Reg_1_Write(0);
 162              		.loc 1 52 0 discriminator 3
 163 00ac 3378     		ldrb	r3, [r6]	@ zero_extendqisi2
 164 00ae 0133     		adds	r3, r3, #1
 165 00b0 3370     		strb	r3, [r6]
 166 00b2 C4E7     		b	.L2
 167              	.L33:
  68:main.c        ****   }
  69:main.c        ****     
  70:main.c        ****     Control_Reg_1_Write(0);
 168              		.loc 1 70 0
 169 00b4 0020     		movs	r0, #0
  71:main.c        ****     j = 0;
 170              		.loc 1 71 0
 171 00b6 8F4F     		ldr	r7, .L37+4
  72:main.c        ****     count =0;
 172              		.loc 1 72 0
 173 00b8 8F4D     		ldr	r5, .L37+8
  70:main.c        ****     j = 0;
 174              		.loc 1 70 0
 175 00ba FFF7FEFF 		bl	Control_Reg_1_Write
 176              	.LVL24:
  71:main.c        ****     j = 0;
 177              		.loc 1 71 0
 178 00be 0023     		movs	r3, #0
 179 00c0 3B70     		strb	r3, [r7]
 180              		.loc 1 72 0
 181 00c2 2B70     		strb	r3, [r5]
 182              	.L19:
  73:main.c        ****     
  74:main.c        ****     for(;;)
  75:main.c        ****     {   t0 = (uint16)MY_TIMER_ReadCounter();
 183              		.loc 1 75 0
 184 00c4 FFF7FEFF 		bl	MY_TIMER_ReadCounter
 185              	.LVL25:
 186 00c8 8C4B     		ldr	r3, .L37+12
 187 00ca 1880     		strh	r0, [r3]	@ movhi
  76:main.c        **** for (k=0;k<1; k++){
 188              		.loc 1 76 0
 189 00cc 0023     		movs	r3, #0
 190 00ce 2370     		strb	r3, [r4]
 191              	.L4:
 192              		.loc 1 76 0 is_stmt 0 discriminator 1
 193 00d0 2078     		ldrb	r0, [r4]	@ zero_extendqisi2
 194 00d2 0028     		cmp	r0, #0
 195 00d4 7AD1     		bne	.L34
  77:main.c        ****     Control_Reg_1_Write(0);
 196              		.loc 1 77 0 is_stmt 1
 197 00d6 FFF7FEFF 		bl	Control_Reg_1_Write
 198              	.LVL26:
 199              	.L5:
  78:main.c        **** //      ------------------------------------------------------------------------READ MAG
  79:main.c        ****         do 
  80:main.c        ****         {
  81:main.c        ****             XLDA = ReadControlRegisterSPI(LSM6DSRX_STATUS_REG);          
ARM GAS  C:\Users\mgnocco\AppData\Local\Temp\ccVnpVD9.s 			page 6


 200              		.loc 1 81 0 discriminator 1
 201 00da 1E20     		movs	r0, #30
 202 00dc FFF7FEFF 		bl	ReadControlRegisterSPI
 203              	.LVL27:
 204 00e0 874B     		ldr	r3, .L37+16
  82:main.c        ****         }
  83:main.c        ****         while ((XLDA & 0b00000001) == 0);   
 205              		.loc 1 83 0 discriminator 1
 206 00e2 C207     		lsls	r2, r0, #31
  81:main.c        ****         }
 207              		.loc 1 81 0 discriminator 1
 208 00e4 1870     		strb	r0, [r3]
 209              		.loc 1 83 0 discriminator 1
 210 00e6 F8D5     		bpl	.L5
 211              	.L28:
  84:main.c        ****     
  85:main.c        ****         do 
  86:main.c        ****         {
  87:main.c        ****             SENS_HUB_ENDOP = ReadControlRegisterSPI(LSM6DSRX_STATUS_MASTER_MAINPAGE);   
 212              		.loc 1 87 0 discriminator 1
 213 00e8 3920     		movs	r0, #57
 214 00ea FFF7FEFF 		bl	ReadControlRegisterSPI
 215              	.LVL28:
 216 00ee 854B     		ldr	r3, .L37+20
 217 00f0 1870     		strb	r0, [r3]
  88:main.c        ****         }
  89:main.c        ****         while ((SENS_HUB_ENDOP & 0b00000001) == 0);
 218              		.loc 1 89 0 discriminator 1
 219 00f2 C307     		lsls	r3, r0, #31
 220 00f4 F8D5     		bpl	.L28
  90:main.c        **** 
  91:main.c        ****         WriteControlRegisterSPI(LSM6DSRX_FUNC_CFG_ACCESS, 0x40);   
 221              		.loc 1 91 0
 222 00f6 4021     		movs	r1, #64
 223 00f8 0120     		movs	r0, #1
 224 00fa FFF7FEFF 		bl	WriteControlRegisterSPI
 225              	.LVL29:
  92:main.c        ****         CyDelayUs(100);  
 226              		.loc 1 92 0
 227 00fe 6420     		movs	r0, #100
 228 0100 FFF7FEFF 		bl	CyDelayUs
 229              	.LVL30:
  93:main.c        ****         ReadControlRegisterSPI(LSM6DSRX_WHO_AM_I); 
 230              		.loc 1 93 0
 231 0104 0F20     		movs	r0, #15
 232 0106 FFF7FEFF 		bl	ReadControlRegisterSPI
 233              	.LVL31:
  94:main.c        ****            
  95:main.c        ****         for (i = 0; i < 6; i++){
  96:main.c        ****             Mag[k][j][i]= ReadControlRegisterSPI(LSM6DSRX_SENSOR_HUB_1 + i);  
 234              		.loc 1 96 0
 235 010a 7F4B     		ldr	r3, .L37+24
  93:main.c        ****         ReadControlRegisterSPI(LSM6DSRX_WHO_AM_I); 
 236              		.loc 1 93 0
 237 010c 4FF00008 		mov	r8, #0
 238              		.loc 1 96 0
 239 0110 4FF0060A 		mov	r10, #6
ARM GAS  C:\Users\mgnocco\AppData\Local\Temp\ccVnpVD9.s 			page 7


 240 0114 4FF03C09 		mov	r9, #60
 241              	.LVL32:
 242              	.L7:
 243              		.loc 1 96 0 is_stmt 0 discriminator 3
 244 0118 08F10200 		add	r0, r8, #2
 245 011c C0B2     		uxtb	r0, r0
 246 011e 0193     		str	r3, [sp, #4]
 247              	.LVL33:
 248 0120 94F800B0 		ldrb	fp, [r4]	@ zero_extendqisi2
 249 0124 3E78     		ldrb	r6, [r7]	@ zero_extendqisi2
 250 0126 FFF7FEFF 		bl	ReadControlRegisterSPI
 251              	.LVL34:
 252 012a 09FB0BFB 		mul	fp, r9, fp
 253 012e 0AFB06B6 		mla	r6, r10, r6, fp
 254 0132 019B     		ldr	r3, [sp, #4]
 255 0134 1E44     		add	r6, r6, r3
 256 0136 06F80800 		strb	r0, [r6, r8]
 257              	.LVL35:
 258 013a 08F10108 		add	r8, r8, #1
 259              	.LVL36:
  95:main.c        ****             Mag[k][j][i]= ReadControlRegisterSPI(LSM6DSRX_SENSOR_HUB_1 + i);  
 260              		.loc 1 95 0 is_stmt 1 discriminator 3
 261 013e B8F1060F 		cmp	r8, #6
 262 0142 E9D1     		bne	.L7
  97:main.c        ****         }
  98:main.c        ****        
  99:main.c        ****         WriteControlRegisterSPI(LSM6DSRX_FUNC_CFG_ACCESS, 0x00);   
 263              		.loc 1 99 0
 264 0144 0021     		movs	r1, #0
 265 0146 0120     		movs	r0, #1
 266 0148 FFF7FEFF 		bl	WriteControlRegisterSPI
 267              	.LVL37:
 100:main.c        ****         CyDelayUs(100);
 268              		.loc 1 100 0
 269 014c 6420     		movs	r0, #100
 270 014e FFF7FEFF 		bl	CyDelayUs
 271              	.LVL38:
 101:main.c        ****          
 102:main.c        ****       
 103:main.c        ****           
 104:main.c        ****         for (i = 0; i < 6; i++){
 105:main.c        ****             Accel[k][j][i] = ReadControlRegisterSPI(LSM6DSRX_OUTX_L_A + i);
 272              		.loc 1 105 0
 273 0152 6E4A     		ldr	r2, .L37+28
 100:main.c        ****         CyDelayUs(100);
 274              		.loc 1 100 0
 275 0154 0026     		movs	r6, #0
 276              		.loc 1 105 0
 277 0156 4FF03C09 		mov	r9, #60
 278              	.LVL39:
 279              	.L8:
 280              		.loc 1 105 0 is_stmt 0 discriminator 3
 281 015a 06F12800 		add	r0, r6, #40
 282 015e C0B2     		uxtb	r0, r0
 283 0160 0192     		str	r2, [sp, #4]
 284              	.LVL40:
 285 0162 94F800A0 		ldrb	r10, [r4]	@ zero_extendqisi2
ARM GAS  C:\Users\mgnocco\AppData\Local\Temp\ccVnpVD9.s 			page 8


 286 0166 97F800B0 		ldrb	fp, [r7]	@ zero_extendqisi2
 287 016a FFF7FEFF 		bl	ReadControlRegisterSPI
 288              	.LVL41:
 289 016e 09FB0AF3 		mul	r3, r9, r10
 290 0172 08FB0B3B 		mla	fp, r8, fp, r3
 291 0176 019A     		ldr	r2, [sp, #4]
 292 0178 9344     		add	fp, fp, r2
 293 017a 0BF80600 		strb	r0, [fp, r6]
 294              	.LVL42:
 295 017e 0136     		adds	r6, r6, #1
 296              	.LVL43:
 104:main.c        ****             Accel[k][j][i] = ReadControlRegisterSPI(LSM6DSRX_OUTX_L_A + i);
 297              		.loc 1 104 0 is_stmt 1 discriminator 3
 298 0180 062E     		cmp	r6, #6
 299 0182 EAD1     		bne	.L8
 106:main.c        ****         }
 107:main.c        **** 
 108:main.c        ****         for (i = 0; i < 6; i++){
 109:main.c        ****             Gyro[k][j][i] = ReadControlRegisterSPI(LSM6DSRX_OUTX_L_G + i);
 300              		.loc 1 109 0 discriminator 3
 301 0184 624A     		ldr	r2, .L37+32
 302 0186 4FF00008 		mov	r8, #0
 303              	.LVL44:
 304              	.L9:
 305 018a 08F12200 		add	r0, r8, #34
 306 018e C0B2     		uxtb	r0, r0
 307 0190 0192     		str	r2, [sp, #4]
 308              	.LVL45:
 309 0192 94F800A0 		ldrb	r10, [r4]	@ zero_extendqisi2
 310 0196 97F800B0 		ldrb	fp, [r7]	@ zero_extendqisi2
 311 019a FFF7FEFF 		bl	ReadControlRegisterSPI
 312              	.LVL46:
 313 019e 4FF03C0E 		mov	lr, #60
 314 01a2 0EFB0AF1 		mul	r1, lr, r10
 315 01a6 06FB0B1B 		mla	fp, r6, fp, r1
 316 01aa 019A     		ldr	r2, [sp, #4]
 317 01ac DFF84091 		ldr	r9, .L37
 318 01b0 9344     		add	fp, fp, r2
 319 01b2 0BF80800 		strb	r0, [fp, r8]
 320              	.LVL47:
 321 01b6 08F10108 		add	r8, r8, #1
 322              	.LVL48:
 108:main.c        ****             Gyro[k][j][i] = ReadControlRegisterSPI(LSM6DSRX_OUTX_L_G + i);
 323              		.loc 1 108 0 discriminator 3
 324 01ba B8F1060F 		cmp	r8, #6
 325 01be E4D1     		bne	.L9
  76:main.c        ****     Control_Reg_1_Write(0);
 326              		.loc 1 76 0 discriminator 2
 327 01c0 99F80020 		ldrb	r2, [r9]	@ zero_extendqisi2
 328 01c4 0132     		adds	r2, r2, #1
 329 01c6 89F80020 		strb	r2, [r9]
 330 01ca 81E7     		b	.L4
 331              	.LVL49:
 332              	.L34:
 110:main.c        ****         }
 111:main.c        **** }
 112:main.c        ****         Control_Reg_1_Write(0);
ARM GAS  C:\Users\mgnocco\AppData\Local\Temp\ccVnpVD9.s 			page 9


 333              		.loc 1 112 0
 334 01cc 0020     		movs	r0, #0
 335 01ce FFF7FEFF 		bl	Control_Reg_1_Write
 336              	.LVL50:
 113:main.c        **** 
 114:main.c        **** //}        
 115:main.c        **** 
 116:main.c        ****      
 117:main.c        **** //      ---------------------------------------------------------------------READ AXELS
 118:main.c        **** 
 119:main.c        ****         //CyDelay(1);
 120:main.c        ****         t1 = (uint16) MY_TIMER_ReadCounter();
 337              		.loc 1 120 0
 338 01d2 FFF7FEFF 		bl	MY_TIMER_ReadCounter
 339              	.LVL51:
 121:main.c        ****         tempo[j] = (uint16)(t0-t1);
 340              		.loc 1 121 0
 341 01d6 494A     		ldr	r2, .L37+12
 120:main.c        ****         tempo[j] = (uint16)(t0-t1);
 342              		.loc 1 120 0
 343 01d8 4E4B     		ldr	r3, .L37+36
 344 01da 80B2     		uxth	r0, r0
 345              		.loc 1 121 0
 346 01dc 1288     		ldrh	r2, [r2]
 120:main.c        ****         tempo[j] = (uint16)(t0-t1);
 347              		.loc 1 120 0
 348 01de 1880     		strh	r0, [r3]	@ movhi
 349              		.loc 1 121 0
 350 01e0 4D49     		ldr	r1, .L37+40
 351 01e2 3B78     		ldrb	r3, [r7]	@ zero_extendqisi2
 352 01e4 101A     		subs	r0, r2, r0
 353 01e6 21F81300 		strh	r0, [r1, r3, lsl #1]	@ movhi
 122:main.c        ****     
 123:main.c        ****         j = j + 1;
 354              		.loc 1 123 0
 355 01ea 0133     		adds	r3, r3, #1
 356 01ec DBB2     		uxtb	r3, r3
 124:main.c        ****         
 125:main.c        ****         if (j > 9) {
 357              		.loc 1 125 0
 358 01ee 092B     		cmp	r3, #9
 123:main.c        ****         
 359              		.loc 1 123 0
 360 01f0 3B70     		strb	r3, [r7]
 361 01f2 8846     		mov	r8, r1
 362              		.loc 1 125 0
 363 01f4 75D9     		bls	.L11
 126:main.c        ****             
 127:main.c        ****             for(count = 0; count < 10; count++){ 
 364              		.loc 1 127 0
 365 01f6 0023     		movs	r3, #0
 366              	.L31:
 367              		.loc 1 127 0 is_stmt 0 discriminator 2
 368 01f8 2B70     		strb	r3, [r5]
 369 01fa 2B78     		ldrb	r3, [r5]	@ zero_extendqisi2
 370 01fc 092B     		cmp	r3, #9
 371 01fe 4FF00003 		mov	r3, #0
ARM GAS  C:\Users\mgnocco\AppData\Local\Temp\ccVnpVD9.s 			page 10


 372 0202 6DD8     		bhi	.L35
 128:main.c        ****                 for (k=0;k<1;k++){
 129:main.c        ****                 UART_PutChar(count);
 130:main.c        ****                 UART_PutChar(0);
 131:main.c        ****             
 132:main.c        ****                 var = (uint8)(tempo[count] & 0xFF);
 373              		.loc 1 132 0 is_stmt 1
 374 0204 DFF814A1 		ldr	r10, .L37+44
 128:main.c        ****                 for (k=0;k<1;k++){
 375              		.loc 1 128 0
 376 0208 2370     		strb	r3, [r4]
 377              	.L13:
 128:main.c        ****                 for (k=0;k<1;k++){
 378              		.loc 1 128 0 is_stmt 0 discriminator 1
 379 020a 2678     		ldrb	r6, [r4]	@ zero_extendqisi2
 380 020c 002E     		cmp	r6, #0
 381 020e 64D1     		bne	.L36
 129:main.c        ****                 UART_PutChar(0);
 382              		.loc 1 129 0 is_stmt 1
 383 0210 2878     		ldrb	r0, [r5]	@ zero_extendqisi2
 384 0212 FFF7FEFF 		bl	UART_PutChar
 385              	.LVL52:
 130:main.c        ****             
 386              		.loc 1 130 0
 387 0216 3046     		mov	r0, r6
 388 0218 FFF7FEFF 		bl	UART_PutChar
 389              	.LVL53:
 390              		.loc 1 132 0
 391 021c 2B78     		ldrb	r3, [r5]	@ zero_extendqisi2
 133:main.c        ****                 UART_PutChar(var);
 134:main.c        ****                 var = (uint8) (tempo[count] >> 8);
 135:main.c        ****                 UART_PutChar(var);
 136:main.c        ****                 
 137:main.c        ****                 
 138:main.c        ****                 for (i = 0; i < 6; i++){
 139:main.c        ****                     UART_PutChar( Accel[k][count][i]);
 392              		.loc 1 139 0
 393 021e 4FF00609 		mov	r9, #6
 132:main.c        ****                 UART_PutChar(var);
 394              		.loc 1 132 0
 395 0222 18F81300 		ldrb	r0, [r8, r3, lsl #1]	@ zero_extendqisi2
 396              		.loc 1 139 0
 397 0226 4FF03C0B 		mov	fp, #60
 132:main.c        ****                 UART_PutChar(var);
 398              		.loc 1 132 0
 399 022a 8AF80000 		strb	r0, [r10]
 133:main.c        ****                 UART_PutChar(var);
 400              		.loc 1 133 0
 401 022e FFF7FEFF 		bl	UART_PutChar
 402              	.LVL54:
 134:main.c        ****                 UART_PutChar(var);
 403              		.loc 1 134 0
 404 0232 2B78     		ldrb	r3, [r5]	@ zero_extendqisi2
 405 0234 38F81300 		ldrh	r0, [r8, r3, lsl #1]
 406 0238 000A     		lsrs	r0, r0, #8
 407 023a 8AF80000 		strb	r0, [r10]
 135:main.c        ****                 
ARM GAS  C:\Users\mgnocco\AppData\Local\Temp\ccVnpVD9.s 			page 11


 408              		.loc 1 135 0
 409 023e FFF7FEFF 		bl	UART_PutChar
 410              	.LVL55:
 411              	.L14:
 412              		.loc 1 139 0 discriminator 3
 413 0242 2178     		ldrb	r1, [r4]	@ zero_extendqisi2
 414 0244 2878     		ldrb	r0, [r5]	@ zero_extendqisi2
 415 0246 0BFB01F1 		mul	r1, fp, r1
 416 024a 09FB0011 		mla	r1, r9, r0, r1
 417 024e 2F4B     		ldr	r3, .L37+28
 418 0250 1944     		add	r1, r1, r3
 419 0252 885D     		ldrb	r0, [r1, r6]	@ zero_extendqisi2
 420 0254 0136     		adds	r6, r6, #1
 421              	.LVL56:
 422 0256 FFF7FEFF 		bl	UART_PutChar
 423              	.LVL57:
 138:main.c        ****                     UART_PutChar( Accel[k][count][i]);
 424              		.loc 1 138 0 discriminator 3
 425 025a 062E     		cmp	r6, #6
 426 025c F1D1     		bne	.L14
 140:main.c        ****                 }
 141:main.c        ****                 
 142:main.c        ****                 for (i = 0 ; i < 6; i++){
 143:main.c        ****                     UART_PutChar( Gyro[k][count][i]);
 427              		.loc 1 143 0 discriminator 3
 428 025e 2C4B     		ldr	r3, .L37+32
 429 0260 4FF0000B 		mov	fp, #0
 430 0264 4FF03C09 		mov	r9, #60
 431              	.L15:
 432              	.LVL58:
 433 0268 2078     		ldrb	r0, [r4]	@ zero_extendqisi2
 434 026a 95F800E0 		ldrb	lr, [r5]	@ zero_extendqisi2
 435 026e 09FB00F0 		mul	r0, r9, r0
 436 0272 06FB0E00 		mla	r0, r6, lr, r0
 437 0276 1844     		add	r0, r0, r3
 438 0278 10F80B00 		ldrb	r0, [r0, fp]	@ zero_extendqisi2
 439 027c 0BF1010B 		add	fp, fp, #1
 440              	.LVL59:
 441 0280 0193     		str	r3, [sp, #4]
 442 0282 FFF7FEFF 		bl	UART_PutChar
 443              	.LVL60:
 142:main.c        ****                     UART_PutChar( Gyro[k][count][i]);
 444              		.loc 1 142 0 discriminator 3
 445 0286 BBF1060F 		cmp	fp, #6
 446 028a 019B     		ldr	r3, [sp, #4]
 447 028c ECD1     		bne	.L15
 144:main.c        ****                 }
 145:main.c        ****                                     
 146:main.c        ****                 for (i = 0; i < 6; i++){
 147:main.c        ****                     UART_PutChar( Mag[k][count][i]);
 448              		.loc 1 147 0 discriminator 3
 449 028e 1E49     		ldr	r1, .L37+24
 450 0290 4FF00009 		mov	r9, #0
 451              	.L16:
 452              	.LVL61:
 453 0294 94F800C0 		ldrb	ip, [r4]	@ zero_extendqisi2
 454 0298 3C20     		movs	r0, #60
ARM GAS  C:\Users\mgnocco\AppData\Local\Temp\ccVnpVD9.s 			page 12


 455 029a 00FB0CF0 		mul	r0, r0, ip
 456 029e 95F800E0 		ldrb	lr, [r5]	@ zero_extendqisi2
 457 02a2 0191     		str	r1, [sp, #4]
 458 02a4 0BFB0E00 		mla	r0, fp, lr, r0
 459 02a8 0844     		add	r0, r0, r1
 460 02aa 10F80900 		ldrb	r0, [r0, r9]	@ zero_extendqisi2
 461 02ae 09F10109 		add	r9, r9, #1
 462              	.LVL62:
 463 02b2 FFF7FEFF 		bl	UART_PutChar
 464              	.LVL63:
 146:main.c        ****                     UART_PutChar( Mag[k][count][i]);
 465              		.loc 1 146 0 discriminator 3
 466 02b6 B9F1060F 		cmp	r9, #6
 467              		.loc 1 147 0 discriminator 3
 468 02ba 0D4E     		ldr	r6, .L37
 146:main.c        ****                     UART_PutChar( Mag[k][count][i]);
 469              		.loc 1 146 0 discriminator 3
 470 02bc 0199     		ldr	r1, [sp, #4]
 471 02be E9D1     		bne	.L16
 148:main.c        ****                 }
 149:main.c        ****                 
 150:main.c        ****                 UART_PutChar('c');
 472              		.loc 1 150 0 discriminator 2
 473 02c0 6320     		movs	r0, #99
 474 02c2 FFF7FEFF 		bl	UART_PutChar
 475              	.LVL64:
 151:main.c        ****                 UART_PutChar('i');
 476              		.loc 1 151 0 discriminator 2
 477 02c6 6920     		movs	r0, #105
 478 02c8 FFF7FEFF 		bl	UART_PutChar
 479              	.LVL65:
 152:main.c        ****                 UART_PutChar('a');
 480              		.loc 1 152 0 discriminator 2
 481 02cc 6120     		movs	r0, #97
 482 02ce FFF7FEFF 		bl	UART_PutChar
 483              	.LVL66:
 128:main.c        ****                 UART_PutChar(count);
 484              		.loc 1 128 0 discriminator 2
 485 02d2 3378     		ldrb	r3, [r6]	@ zero_extendqisi2
 486 02d4 0133     		adds	r3, r3, #1
 487 02d6 3370     		strb	r3, [r6]
 488 02d8 97E7     		b	.L13
 489              	.L36:
 127:main.c        ****                 for (k=0;k<1;k++){
 490              		.loc 1 127 0 discriminator 2
 491 02da 2B78     		ldrb	r3, [r5]	@ zero_extendqisi2
 492 02dc 0133     		adds	r3, r3, #1
 493 02de 8BE7     		b	.L31
 494              	.L35:
 153:main.c        **** }
 154:main.c        ****             }
 155:main.c        ****             
 156:main.c        ****             j = 0;
 495              		.loc 1 156 0
 496 02e0 3B70     		strb	r3, [r7]
 497              	.L11:
 157:main.c        ****             
ARM GAS  C:\Users\mgnocco\AppData\Local\Temp\ccVnpVD9.s 			page 13


 158:main.c        ****         } 
 159:main.c        ****         
 160:main.c        ****         MY_TIMER_REG_Write(1);
 498              		.loc 1 160 0
 499 02e2 0120     		movs	r0, #1
 500 02e4 FFF7FEFF 		bl	MY_TIMER_REG_Write
 501              	.LVL67:
 161:main.c        ****         
 162:main.c        ****         MY_TIMER_REG_Write(0);
 502              		.loc 1 162 0
 503 02e8 0020     		movs	r0, #0
 504 02ea FFF7FEFF 		bl	MY_TIMER_REG_Write
 505              	.LVL68:
 163:main.c        ****         
 164:main.c        ****         
 165:main.c        ****     }
 506              		.loc 1 165 0
 507 02ee E9E6     		b	.L19
 508              	.L38:
 509              		.align	2
 510              	.L37:
 511 02f0 00000000 		.word	k
 512 02f4 00000000 		.word	j
 513 02f8 00000000 		.word	count
 514 02fc 00000000 		.word	t0
 515 0300 00000000 		.word	XLDA
 516 0304 00000000 		.word	SENS_HUB_ENDOP
 517 0308 00000000 		.word	Mag
 518 030c 00000000 		.word	Accel
 519 0310 00000000 		.word	Gyro
 520 0314 00000000 		.word	t1
 521 0318 00000000 		.word	tempo
 522 031c 00000000 		.word	var
 523              		.cfi_endproc
 524              	.LFE64:
 525              		.size	main, .-main
 526              		.comm	var,1,1
 527              		.comm	k,1,1
 528              		.comm	count,1,1
 529              		.comm	j,1,1
 530              		.comm	tempo,20,2
 531              		.comm	t1,2,2
 532              		.comm	t0,2,2
 533              		.comm	SENS_HUB_ENDOP,1,1
 534              		.comm	XLDA,1,1
 535              		.comm	GDA,1,1
 536              		.comm	Temp,2,1
 537              		.comm	Gyro,120,1
 538              		.comm	Accel,120,1
 539              		.comm	Mag,120,1
 540              		.comm	g_imuNew,16,2
 541              		.comm	g_imu,16,2
 542              		.comm	IMU_ack,4,4
 543              		.text
 544              	.Letext0:
 545              		.file 2 "c:\\program files (x86)\\cypress\\psoc creator\\4.4\\psoc creator\\import\\gnu\\arm\\5.4.
 546              		.file 3 "c:\\program files (x86)\\cypress\\psoc creator\\4.4\\psoc creator\\import\\gnu\\arm\\5.4.
ARM GAS  C:\Users\mgnocco\AppData\Local\Temp\ccVnpVD9.s 			page 14


 547              		.file 4 "Generated_Source\\PSoC5/cytypes.h"
 548              		.file 5 "globals.h"
 549              		.file 6 "Generated_Source\\PSoC5/core_cm3.h"
 550              		.file 7 "Generated_Source\\PSoC5/MY_TIMER.h"
 551              		.file 8 "Generated_Source\\PSoC5/PACER_TIMER.h"
 552              		.file 9 "Generated_Source\\PSoC5/SPI_IMU.h"
 553              		.file 10 "Generated_Source\\PSoC5/CyLib.h"
 554              		.file 11 "Generated_Source\\PSoC5/UART.h"
 555              		.file 12 "Generated_Source\\PSoC5/Control_Reg_1.h"
 556              		.file 13 "header01.h"
 557              		.file 14 "Generated_Source\\PSoC5/MY_TIMER_REG.h"