ARM GAS  C:\Users\mgnocco\AppData\Local\Temp\cc2AIrWY.s 			page 1


   1              		.syntax unified
   2              		.cpu cortex-m3
   3              		.fpu softvfp
   4              		.eabi_attribute 20, 1
   5              		.eabi_attribute 21, 1
   6              		.eabi_attribute 23, 3
   7              		.eabi_attribute 24, 1
   8              		.eabi_attribute 25, 1
   9              		.eabi_attribute 26, 1
  10              		.eabi_attribute 30, 4
  11              		.eabi_attribute 34, 1
  12              		.eabi_attribute 18, 4
  13              		.thumb
  14              		.syntax unified
  15              		.file	"source01.c"
  16              		.text
  17              	.Ltext0:
  18              		.cfi_sections	.debug_frame
  19              		.section	.text.WriteControlRegisterSPI,"ax",%progbits
  20              		.align	1
  21              		.global	WriteControlRegisterSPI
  22              		.thumb
  23              		.thumb_func
  24              		.type	WriteControlRegisterSPI, %function
  25              	WriteControlRegisterSPI:
  26              	.LFB64:
  27              		.file 1 "source01.c"
   1:source01.c    **** /* ========================================
   2:source01.c    ****  *
   3:source01.c    ****  * Copyright YOUR COMPANY, THE YEAR
   4:source01.c    ****  * All Rights Reserved
   5:source01.c    ****  * UNPUBLISHED, LICENSED SOFTWARE.
   6:source01.c    ****  *
   7:source01.c    ****  * CONFIDENTIAL AND PROPRIETARY INFORMATION
   8:source01.c    ****  * WHICH IS THE PROPERTY OF your company.
   9:source01.c    ****  *
  10:source01.c    ****  * ========================================
  11:source01.c    **** */
  12:source01.c    **** 
  13:source01.c    **** #include "header01.h"
  14:source01.c    **** #include "globals.h"
  15:source01.c    **** /********************************** *********************************************
  16:source01.c    **** * Function Name: Write Control Register
  17:source01.c    **** *********************************************************************************/
  18:source01.c    **** 
  19:source01.c    **** void WriteControlRegisterSPI(uint8 address, uint8 dta){
  28              		.loc 1 19 0
  29              		.cfi_startproc
  30              		@ args = 0, pretend = 0, frame = 0
  31              		@ frame_needed = 0, uses_anonymous_args = 0
  32              	.LVL0:
  33 0000 38B5     		push	{r3, r4, r5, lr}
  34              		.cfi_def_cfa_offset 16
  35              		.cfi_offset 3, -16
  36              		.cfi_offset 4, -12
  37              		.cfi_offset 5, -8
  38              		.cfi_offset 14, -4
ARM GAS  C:\Users\mgnocco\AppData\Local\Temp\cc2AIrWY.s 			page 2


  39              		.loc 1 19 0
  40 0002 0546     		mov	r5, r0
  41 0004 0C46     		mov	r4, r1
  20:source01.c    **** 	
  21:source01.c    **** 	SPI_IMU_ClearRxBuffer();
  42              		.loc 1 21 0
  43 0006 FFF7FEFF 		bl	SPI_IMU_ClearRxBuffer
  44              	.LVL1:
  22:source01.c    **** 	SPI_IMU_ClearTxBuffer();
  45              		.loc 1 22 0
  46 000a FFF7FEFF 		bl	SPI_IMU_ClearTxBuffer
  47              	.LVL2:
  23:source01.c    **** 	SPI_IMU_ClearFIFO();
  48              		.loc 1 23 0
  49 000e FFF7FEFF 		bl	SPI_IMU_ClearFIFO
  50              	.LVL3:
  24:source01.c    **** 	SPI_IMU_WriteByte(LSM6DSRX_WCR | address);
  51              		.loc 1 24 0
  52 0012 2846     		mov	r0, r5
  53 0014 FFF7FEFF 		bl	SPI_IMU_WriteTxData
  54              	.LVL4:
  55              	.L2:
  25:source01.c    **** 	while(!( SPI_IMU_ReadStatus() & SPI_IMU_STS_TX_FIFO_EMPTY));		
  56              		.loc 1 25 0 discriminator 1
  57 0018 FFF7FEFF 		bl	SPI_IMU_ReadStatus
  58              	.LVL5:
  59 001c 8207     		lsls	r2, r0, #30
  60 001e FBD5     		bpl	.L2
  26:source01.c    **** 	SPI_IMU_WriteByte(dta);
  61              		.loc 1 26 0
  62 0020 2046     		mov	r0, r4
  63 0022 FFF7FEFF 		bl	SPI_IMU_WriteTxData
  64              	.LVL6:
  65              	.L3:
  27:source01.c    **** 	while(!( SPI_IMU_ReadStatus() & SPI_IMU_STS_TX_FIFO_EMPTY));
  66              		.loc 1 27 0 discriminator 1
  67 0026 FFF7FEFF 		bl	SPI_IMU_ReadStatus
  68              	.LVL7:
  69 002a 8307     		lsls	r3, r0, #30
  70 002c FBD5     		bpl	.L3
  28:source01.c    **** }
  71              		.loc 1 28 0
  72 002e 38BD     		pop	{r3, r4, r5, pc}
  73              		.cfi_endproc
  74              	.LFE64:
  75              		.size	WriteControlRegisterSPI, .-WriteControlRegisterSPI
  76              		.section	.text.ReadControlRegisterSPI,"ax",%progbits
  77              		.align	1
  78              		.global	ReadControlRegisterSPI
  79              		.thumb
  80              		.thumb_func
  81              		.type	ReadControlRegisterSPI, %function
  82              	ReadControlRegisterSPI:
  83              	.LFB65:
  29:source01.c    **** 
  30:source01.c    **** /*******************************************************************************
  31:source01.c    **** * Function Name: Read Control Register
ARM GAS  C:\Users\mgnocco\AppData\Local\Temp\cc2AIrWY.s 			page 3


  32:source01.c    **** *********************************************************************************/
  33:source01.c    **** uint8 ReadControlRegisterSPI(uint8 address){
  84              		.loc 1 33 0
  85              		.cfi_startproc
  86              		@ args = 0, pretend = 0, frame = 0
  87              		@ frame_needed = 0, uses_anonymous_args = 0
  88              	.LVL8:
  89 0000 08B5     		push	{r3, lr}
  90              		.cfi_def_cfa_offset 8
  91              		.cfi_offset 3, -8
  92              		.cfi_offset 14, -4
  34:source01.c    **** 	uint8 controlreg = 0;
  35:source01.c    **** 	SPI_IMU_WriteByte(LSM6DSRX_RCR | address);
  93              		.loc 1 35 0
  94 0002 40F08000 		orr	r0, r0, #128
  95              	.LVL9:
  96 0006 FFF7FEFF 		bl	SPI_IMU_WriteTxData
  97              	.LVL10:
  98              	.L10:
  36:source01.c    ****     while(!( SPI_IMU_ReadStatus() & SPI_IMU_STS_TX_FIFO_EMPTY));
  99              		.loc 1 36 0 discriminator 1
 100 000a FFF7FEFF 		bl	SPI_IMU_ReadStatus
 101              	.LVL11:
 102 000e 8207     		lsls	r2, r0, #30
 103 0010 FBD5     		bpl	.L10
  37:source01.c    ****     SPI_IMU_WriteByte(0x00);
 104              		.loc 1 37 0
 105 0012 0020     		movs	r0, #0
 106 0014 FFF7FEFF 		bl	SPI_IMU_WriteTxData
 107              	.LVL12:
 108              	.L11:
  38:source01.c    **** 	while(!( SPI_IMU_ReadStatus() & SPI_IMU_STS_SPI_DONE));
 109              		.loc 1 38 0 discriminator 1
 110 0018 FFF7FEFF 		bl	SPI_IMU_ReadStatus
 111              	.LVL13:
 112 001c C307     		lsls	r3, r0, #31
 113 001e FBD5     		bpl	.L11
  39:source01.c    **** 	controlreg = SPI_IMU_ReadByte();        //real data
  40:source01.c    **** 	return controlreg;
  41:source01.c    **** }
 114              		.loc 1 41 0
 115 0020 BDE80840 		pop	{r3, lr}
 116              		.cfi_restore 14
 117              		.cfi_restore 3
 118              		.cfi_def_cfa_offset 0
  39:source01.c    **** 	controlreg = SPI_IMU_ReadByte();        //real data
 119              		.loc 1 39 0
 120 0024 FFF7FEBF 		b	SPI_IMU_ReadRxData
 121              	.LVL14:
 122              		.cfi_endproc
 123              	.LFE65:
 124              		.size	ReadControlRegisterSPI, .-ReadControlRegisterSPI
 125              		.section	.text.InitIMU,"ax",%progbits
 126              		.align	1
 127              		.global	InitIMU
 128              		.thumb
 129              		.thumb_func
ARM GAS  C:\Users\mgnocco\AppData\Local\Temp\cc2AIrWY.s 			page 4


 130              		.type	InitIMU, %function
 131              	InitIMU:
 132              	.LFB66:
  42:source01.c    **** 
  43:source01.c    **** 
  44:source01.c    **** void InitIMU() {
 133              		.loc 1 44 0
 134              		.cfi_startproc
 135              		@ args = 0, pretend = 0, frame = 0
 136              		@ frame_needed = 0, uses_anonymous_args = 0
 137 0000 08B5     		push	{r3, lr}
 138              		.cfi_def_cfa_offset 8
 139              		.cfi_offset 3, -8
 140              		.cfi_offset 14, -4
  45:source01.c    ****     InitAxelGyro();
 141              		.loc 1 45 0
 142 0002 FFF7FEFF 		bl	InitAxelGyro
 143              	.LVL15:
  46:source01.c    ****     //InitMag();
  47:source01.c    ****     WriteControlRegisterSPI(LSM6DSRX_FUNC_CFG_ACCESS,0b01000000); //Enable I2C master mode with ext
  48:source01.c    ****     //CyDelay(10);//Enable I2C master mode with external sensor
  49:source01.c    **** }
 144              		.loc 1 49 0
 145 0006 BDE80840 		pop	{r3, lr}
 146              		.cfi_restore 14
 147              		.cfi_restore 3
 148              		.cfi_def_cfa_offset 0
  47:source01.c    ****     //CyDelay(10);//Enable I2C master mode with external sensor
 149              		.loc 1 47 0
 150 000a 4021     		movs	r1, #64
 151 000c 0120     		movs	r0, #1
 152 000e FFF7FEBF 		b	WriteControlRegisterSPI
 153              	.LVL16:
 154              		.cfi_endproc
 155              	.LFE66:
 156              		.size	InitIMU, .-InitIMU
 157              		.section	.text.OneShot_ReadRoutine1,"ax",%progbits
 158              		.align	1
 159              		.global	OneShot_ReadRoutine1
 160              		.thumb
 161              		.thumb_func
 162              		.type	OneShot_ReadRoutine1, %function
 163              	OneShot_ReadRoutine1:
 164              	.LFB67:
  50:source01.c    **** 
  51:source01.c    **** 
  52:source01.c    **** 
  53:source01.c    **** void OneShot_ReadRoutine1(uint8 address, uint8 subaddress,uint8 slave_config){
 165              		.loc 1 53 0
 166              		.cfi_startproc
 167              		@ args = 0, pretend = 0, frame = 0
 168              		@ frame_needed = 0, uses_anonymous_args = 0
 169              	.LVL17:
 170 0000 38B5     		push	{r3, r4, r5, lr}
 171              		.cfi_def_cfa_offset 16
 172              		.cfi_offset 3, -16
 173              		.cfi_offset 4, -12
ARM GAS  C:\Users\mgnocco\AppData\Local\Temp\cc2AIrWY.s 			page 5


 174              		.cfi_offset 5, -8
 175              		.cfi_offset 14, -4
 176              		.loc 1 53 0
 177 0002 0546     		mov	r5, r0
 178 0004 0C46     		mov	r4, r1
  54:source01.c    ****     uint8 XLDA;
  55:source01.c    ****     uint8 SENS_HUB_ENDOP;
  56:source01.c    ****     uint8 Data;
  57:source01.c    ****     uint8 i;
  58:source01.c    ****     uint16 t1;
  59:source01.c    ****     uint16 t0;
  60:source01.c    ****     uint16 tempo;
  61:source01.c    ****     uint8 tempoLSB, tempoMSB;
  62:source01.c    ****     
  63:source01.c    **** 
  64:source01.c    ****         
  65:source01.c    ****     WriteControlRegisterSPI(LSM6DSRX_FUNC_CFG_ACCESS, 0x40);  //18ms
 179              		.loc 1 65 0
 180 0006 0120     		movs	r0, #1
 181              	.LVL18:
 182 0008 4021     		movs	r1, #64
 183              	.LVL19:
 184 000a FFF7FEFF 		bl	WriteControlRegisterSPI
 185              	.LVL20:
  66:source01.c    ****     CyDelayUs(100);
 186              		.loc 1 66 0
 187 000e 6420     		movs	r0, #100
 188 0010 FFF7FEFF 		bl	CyDelayUs
 189              	.LVL21:
  67:source01.c    ****     WriteControlRegisterSPI(LSM6DSRX_SLV0_ADD, address | 0x01); //28ms
 190              		.loc 1 67 0
 191 0014 45F00101 		orr	r1, r5, #1
 192 0018 1520     		movs	r0, #21
 193 001a FFF7FEFF 		bl	WriteControlRegisterSPI
 194              	.LVL22:
  68:source01.c    ****     CyDelayUs(10);
 195              		.loc 1 68 0
 196 001e 0A20     		movs	r0, #10
 197 0020 FFF7FEFF 		bl	CyDelayUs
 198              	.LVL23:
  69:source01.c    ****     WriteControlRegisterSPI(LSM6DSRX_SLV0_SUBADD, subaddress); //10
 199              		.loc 1 69 0
 200 0024 2146     		mov	r1, r4
 201 0026 1620     		movs	r0, #22
 202 0028 FFF7FEFF 		bl	WriteControlRegisterSPI
 203              	.LVL24:
  70:source01.c    ****     CyDelayUs(10);
 204              		.loc 1 70 0
 205 002c 0A20     		movs	r0, #10
 206 002e FFF7FEFF 		bl	CyDelayUs
 207              	.LVL25:
  71:source01.c    ****            
  72:source01.c    ****     WriteControlRegisterSPI(LSM6DSRX_SLV0_CONFIG, 0b00000110); //ODR = 288Hz, FSR=+/-2g, LPF2 disab
 208              		.loc 1 72 0
 209 0032 0621     		movs	r1, #6
 210 0034 1720     		movs	r0, #23
 211 0036 FFF7FEFF 		bl	WriteControlRegisterSPI
ARM GAS  C:\Users\mgnocco\AppData\Local\Temp\cc2AIrWY.s 			page 6


 212              	.LVL26:
  73:source01.c    ****      CyDelayUs(10);
 213              		.loc 1 73 0
 214 003a 0A20     		movs	r0, #10
 215 003c FFF7FEFF 		bl	CyDelayUs
 216              	.LVL27:
  74:source01.c    ****     WriteControlRegisterSPI(LSM6DSRX_MASTER_CONFIG, 0x4C); //ODR = 288Hz, FSR=+/-2g, LPF2 disabled 
 217              		.loc 1 74 0
 218 0040 4C21     		movs	r1, #76
 219 0042 1420     		movs	r0, #20
 220 0044 FFF7FEFF 		bl	WriteControlRegisterSPI
 221              	.LVL28:
  75:source01.c    ****     CyDelayUs(10);  
 222              		.loc 1 75 0
 223 0048 0A20     		movs	r0, #10
 224 004a FFF7FEFF 		bl	CyDelayUs
 225              	.LVL29:
  76:source01.c    ****                 
  77:source01.c    ****     WriteControlRegisterSPI(LSM6DSRX_FUNC_CFG_ACCESS, 0x00);   //17
 226              		.loc 1 77 0
 227 004e 0021     		movs	r1, #0
 228 0050 0120     		movs	r0, #1
 229 0052 FFF7FEFF 		bl	WriteControlRegisterSPI
 230              	.LVL30:
  78:source01.c    ****     CyDelayUs(100); 
 231              		.loc 1 78 0
 232 0056 6420     		movs	r0, #100
 233 0058 FFF7FEFF 		bl	CyDelayUs
 234              	.LVL31:
  79:source01.c    ****     
  80:source01.c    ****     i = ReadControlRegisterSPI(LSM6DSRX_WHO_AM_I);
 235              		.loc 1 80 0
 236 005c 0F20     		movs	r0, #15
 237 005e FFF7FEFF 		bl	ReadControlRegisterSPI
 238              	.LVL32:
  81:source01.c    ****     
  82:source01.c    ****     i = ReadControlRegisterSPI(LSM6DSRX_OUTZ_L_A);
 239              		.loc 1 82 0
 240 0062 2C20     		movs	r0, #44
 241 0064 FFF7FEFF 		bl	ReadControlRegisterSPI
 242              	.LVL33:
  83:source01.c    ****         UART_PutChar(i);
 243              		.loc 1 83 0
 244 0068 FFF7FEFF 		bl	UART_PutChar
 245              	.LVL34:
  84:source01.c    ****         i = ReadControlRegisterSPI(LSM6DSRX_OUTZ_H_A);
 246              		.loc 1 84 0
 247 006c 2D20     		movs	r0, #45
 248 006e FFF7FEFF 		bl	ReadControlRegisterSPI
 249              	.LVL35:
  85:source01.c    ****         UART_PutChar(i);
 250              		.loc 1 85 0
 251 0072 FFF7FEFF 		bl	UART_PutChar
 252              	.LVL36:
  86:source01.c    ****    i= ReadControlRegisterSPI(LSM6DSRX_OUTX_L_A); //21
 253              		.loc 1 86 0
 254 0076 2820     		movs	r0, #40
ARM GAS  C:\Users\mgnocco\AppData\Local\Temp\cc2AIrWY.s 			page 7


 255 0078 FFF7FEFF 		bl	ReadControlRegisterSPI
 256              	.LVL37:
  87:source01.c    **** UART_PutChar(i);
 257              		.loc 1 87 0
 258 007c FFF7FEFF 		bl	UART_PutChar
 259              	.LVL38:
  88:source01.c    ****   i = ReadControlRegisterSPI(LSM6DSRX_OUTX_H_A);
 260              		.loc 1 88 0
 261 0080 2920     		movs	r0, #41
 262 0082 FFF7FEFF 		bl	ReadControlRegisterSPI
 263              	.LVL39:
  89:source01.c    ****         UART_PutChar(i);
 264              		.loc 1 89 0
 265 0086 FFF7FEFF 		bl	UART_PutChar
 266              	.LVL40:
  90:source01.c    ****         i = ReadControlRegisterSPI(LSM6DSRX_OUTY_L_A);
 267              		.loc 1 90 0
 268 008a 2A20     		movs	r0, #42
 269 008c FFF7FEFF 		bl	ReadControlRegisterSPI
 270              	.LVL41:
  91:source01.c    ****         UART_PutChar(i);
 271              		.loc 1 91 0
 272 0090 FFF7FEFF 		bl	UART_PutChar
 273              	.LVL42:
  92:source01.c    ****    i= ReadControlRegisterSPI(LSM6DSRX_OUTY_H_A); //21
 274              		.loc 1 92 0
 275 0094 2B20     		movs	r0, #43
 276 0096 FFF7FEFF 		bl	ReadControlRegisterSPI
 277              	.LVL43:
  93:source01.c    **** UART_PutChar(i);
 278              		.loc 1 93 0
 279 009a FFF7FEFF 		bl	UART_PutChar
 280              	.LVL44:
  94:source01.c    ****     CyDelayUs(10);
 281              		.loc 1 94 0
 282 009e 0A20     		movs	r0, #10
 283 00a0 FFF7FEFF 		bl	CyDelayUs
 284              	.LVL45:
  95:source01.c    ****     
  96:source01.c    ****         
  97:source01.c    ****     i = ReadControlRegisterSPI(LSM6DSRX_OUTZ_L_G);
 285              		.loc 1 97 0
 286 00a4 2620     		movs	r0, #38
 287 00a6 FFF7FEFF 		bl	ReadControlRegisterSPI
 288              	.LVL46:
  98:source01.c    ****         UART_PutChar(i);
 289              		.loc 1 98 0
 290 00aa FFF7FEFF 		bl	UART_PutChar
 291              	.LVL47:
  99:source01.c    ****         i = ReadControlRegisterSPI(LSM6DSRX_OUTZ_H_G);
 292              		.loc 1 99 0
 293 00ae 2720     		movs	r0, #39
 294 00b0 FFF7FEFF 		bl	ReadControlRegisterSPI
 295              	.LVL48:
 100:source01.c    ****         UART_PutChar(i);
 296              		.loc 1 100 0
 297 00b4 FFF7FEFF 		bl	UART_PutChar
ARM GAS  C:\Users\mgnocco\AppData\Local\Temp\cc2AIrWY.s 			page 8


 298              	.LVL49:
 299              	.L18:
 101:source01.c    **** 
 102:source01.c    ****         
 103:source01.c    ****     
 104:source01.c    ****     do 
 105:source01.c    ****     {
 106:source01.c    ****         XLDA = ReadControlRegisterSPI(LSM6DSRX_STATUS_REG);  //20
 300              		.loc 1 106 0 discriminator 1
 301 00b8 1E20     		movs	r0, #30
 302 00ba FFF7FEFF 		bl	ReadControlRegisterSPI
 303              	.LVL50:
 107:source01.c    ****                 
 108:source01.c    ****     }
 109:source01.c    ****     while ((XLDA & 0b00000001) == 0); 
 304              		.loc 1 109 0 discriminator 1
 305 00be C207     		lsls	r2, r0, #31
 306 00c0 FAD5     		bpl	.L18
 307              	.LVL51:
 308              	.L22:
 110:source01.c    ****     
 111:source01.c    ****      
 112:source01.c    ****     do 
 113:source01.c    ****     {
 114:source01.c    ****         SENS_HUB_ENDOP = ReadControlRegisterSPI(LSM6DSRX_STATUS_MASTER_MAINPAGE);   
 309              		.loc 1 114 0 discriminator 1
 310 00c2 3920     		movs	r0, #57
 311 00c4 FFF7FEFF 		bl	ReadControlRegisterSPI
 312              	.LVL52:
 115:source01.c    ****        // UART_PutChar(SENS_HUB_ENDOP);
 116:source01.c    ****     }
 117:source01.c    ****     while ((SENS_HUB_ENDOP & 0b00000001) == 0);
 313              		.loc 1 117 0 discriminator 1
 314 00c8 C307     		lsls	r3, r0, #31
 315 00ca FAD5     		bpl	.L22
 118:source01.c    ****    // UART_PutChar(SENS_HUB_ENDOP);
 119:source01.c    ****   
 120:source01.c    ****     WriteControlRegisterSPI(LSM6DSRX_FUNC_CFG_ACCESS, 0x40);   
 316              		.loc 1 120 0
 317 00cc 4021     		movs	r1, #64
 318 00ce 0120     		movs	r0, #1
 319              	.LVL53:
 320 00d0 FFF7FEFF 		bl	WriteControlRegisterSPI
 321              	.LVL54:
 121:source01.c    ****     CyDelayUs(100);  
 322              		.loc 1 121 0
 323 00d4 6420     		movs	r0, #100
 324 00d6 FFF7FEFF 		bl	CyDelayUs
 325              	.LVL55:
 122:source01.c    ****     
 123:source01.c    ****     WriteControlRegisterSPI(LSM6DSRX_MASTER_CONFIG, 0x08);
 326              		.loc 1 123 0
 327 00da 0821     		movs	r1, #8
 328 00dc 1420     		movs	r0, #20
 329 00de FFF7FEFF 		bl	WriteControlRegisterSPI
 330              	.LVL56:
 124:source01.c    ****     
ARM GAS  C:\Users\mgnocco\AppData\Local\Temp\cc2AIrWY.s 			page 9


 125:source01.c    ****     CyDelayUs(300);  
 331              		.loc 1 125 0
 332 00e2 4FF49670 		mov	r0, #300
 333 00e6 FFF7FEFF 		bl	CyDelayUs
 334              	.LVL57:
 126:source01.c    ****       
 127:source01.c    ****     ReadControlRegisterSPI(LSM6DSRX_WHO_AM_I);  
 335              		.loc 1 127 0
 336 00ea 0F20     		movs	r0, #15
 337 00ec FFF7FEFF 		bl	ReadControlRegisterSPI
 338              	.LVL58:
 128:source01.c    ****      
 129:source01.c    **** 
 130:source01.c    ****    
 131:source01.c    ****         i= ReadControlRegisterSPI(LSM6DSRX_SENSOR_HUB_1);  
 339              		.loc 1 131 0
 340 00f0 0220     		movs	r0, #2
 341 00f2 FFF7FEFF 		bl	ReadControlRegisterSPI
 342              	.LVL59:
 343 00f6 0446     		mov	r4, r0
 344              	.LVL60:
 132:source01.c    ****         CyDelayUs(10);
 345              		.loc 1 132 0
 346 00f8 0A20     		movs	r0, #10
 347 00fa FFF7FEFF 		bl	CyDelayUs
 348              	.LVL61:
 133:source01.c    ****         UART_PutChar(i);
 349              		.loc 1 133 0
 350 00fe 2046     		mov	r0, r4
 351 0100 FFF7FEFF 		bl	UART_PutChar
 352              	.LVL62:
 134:source01.c    ****                 i= ReadControlRegisterSPI(LSM6DSRX_SENSOR_HUB_2);  
 353              		.loc 1 134 0
 354 0104 0320     		movs	r0, #3
 355 0106 FFF7FEFF 		bl	ReadControlRegisterSPI
 356              	.LVL63:
 357 010a 0446     		mov	r4, r0
 358              	.LVL64:
 135:source01.c    ****                 CyDelayUs(10);
 359              		.loc 1 135 0
 360 010c 0A20     		movs	r0, #10
 361 010e FFF7FEFF 		bl	CyDelayUs
 362              	.LVL65:
 136:source01.c    ****         UART_PutChar(i);
 363              		.loc 1 136 0
 364 0112 2046     		mov	r0, r4
 365 0114 FFF7FEFF 		bl	UART_PutChar
 366              	.LVL66:
 137:source01.c    ****                i= ReadControlRegisterSPI(LSM6DSRX_SENSOR_HUB_3);  
 367              		.loc 1 137 0
 368 0118 0420     		movs	r0, #4
 369 011a FFF7FEFF 		bl	ReadControlRegisterSPI
 370              	.LVL67:
 371 011e 0446     		mov	r4, r0
 372              	.LVL68:
 138:source01.c    ****             CyDelayUs(10);
 373              		.loc 1 138 0
ARM GAS  C:\Users\mgnocco\AppData\Local\Temp\cc2AIrWY.s 			page 10


 374 0120 0A20     		movs	r0, #10
 375 0122 FFF7FEFF 		bl	CyDelayUs
 376              	.LVL69:
 139:source01.c    ****         UART_PutChar(i);
 377              		.loc 1 139 0
 378 0126 2046     		mov	r0, r4
 379 0128 FFF7FEFF 		bl	UART_PutChar
 380              	.LVL70:
 140:source01.c    ****                 i= ReadControlRegisterSPI(LSM6DSRX_SENSOR_HUB_4);  
 381              		.loc 1 140 0
 382 012c 0520     		movs	r0, #5
 383 012e FFF7FEFF 		bl	ReadControlRegisterSPI
 384              	.LVL71:
 385 0132 0446     		mov	r4, r0
 386              	.LVL72:
 141:source01.c    ****                 CyDelayUs(10);
 387              		.loc 1 141 0
 388 0134 0A20     		movs	r0, #10
 389 0136 FFF7FEFF 		bl	CyDelayUs
 390              	.LVL73:
 142:source01.c    ****         UART_PutChar(i);
 391              		.loc 1 142 0
 392 013a 2046     		mov	r0, r4
 393 013c FFF7FEFF 		bl	UART_PutChar
 394              	.LVL74:
 143:source01.c    ****                 i= ReadControlRegisterSPI(LSM6DSRX_SENSOR_HUB_5);  
 395              		.loc 1 143 0
 396 0140 0620     		movs	r0, #6
 397 0142 FFF7FEFF 		bl	ReadControlRegisterSPI
 398              	.LVL75:
 399 0146 0446     		mov	r4, r0
 400              	.LVL76:
 144:source01.c    ****                 CyDelayUs(10);
 401              		.loc 1 144 0
 402 0148 0A20     		movs	r0, #10
 403 014a FFF7FEFF 		bl	CyDelayUs
 404              	.LVL77:
 145:source01.c    ****         UART_PutChar(i);
 405              		.loc 1 145 0
 406 014e 2046     		mov	r0, r4
 407 0150 FFF7FEFF 		bl	UART_PutChar
 408              	.LVL78:
 146:source01.c    ****                 i= ReadControlRegisterSPI(LSM6DSRX_SENSOR_HUB_6); 
 409              		.loc 1 146 0
 410 0154 0720     		movs	r0, #7
 411 0156 FFF7FEFF 		bl	ReadControlRegisterSPI
 412              	.LVL79:
 413 015a 0446     		mov	r4, r0
 414              	.LVL80:
 147:source01.c    ****                 CyDelayUs(10);
 415              		.loc 1 147 0
 416 015c 0A20     		movs	r0, #10
 417 015e FFF7FEFF 		bl	CyDelayUs
 418              	.LVL81:
 148:source01.c    ****         UART_PutChar(i);
 419              		.loc 1 148 0
 420 0162 2046     		mov	r0, r4
ARM GAS  C:\Users\mgnocco\AppData\Local\Temp\cc2AIrWY.s 			page 11


 421 0164 FFF7FEFF 		bl	UART_PutChar
 422              	.LVL82:
 149:source01.c    ****         
 150:source01.c    ****      
 151:source01.c    ****     WriteControlRegisterSPI(LSM6DSRX_FUNC_CFG_ACCESS, 0x00); 
 423              		.loc 1 151 0
 424 0168 0120     		movs	r0, #1
 425 016a 0021     		movs	r1, #0
 426 016c FFF7FEFF 		bl	WriteControlRegisterSPI
 427              	.LVL83:
 152:source01.c    **** 
 153:source01.c    ****     CyDelayUs(100);  
 154:source01.c    ****         
 155:source01.c    ****     
 156:source01.c    ****     
 157:source01.c    **** }
 428              		.loc 1 157 0
 429 0170 BDE83840 		pop	{r3, r4, r5, lr}
 430              		.cfi_restore 14
 431              		.cfi_restore 5
 432              		.cfi_restore 4
 433              		.cfi_restore 3
 434              		.cfi_def_cfa_offset 0
 435              	.LVL84:
 153:source01.c    ****         
 436              		.loc 1 153 0
 437 0174 6420     		movs	r0, #100
 438 0176 FFF7FEBF 		b	CyDelayUs
 439              	.LVL85:
 440              		.cfi_endproc
 441              	.LFE67:
 442              		.size	OneShot_ReadRoutine1, .-OneShot_ReadRoutine1
 443              		.section	.text.OneShot_ReadRoutine,"ax",%progbits
 444              		.align	1
 445              		.global	OneShot_ReadRoutine
 446              		.thumb
 447              		.thumb_func
 448              		.type	OneShot_ReadRoutine, %function
 449              	OneShot_ReadRoutine:
 450              	.LFB68:
 158:source01.c    **** 
 159:source01.c    **** uint8 OneShot_ReadRoutine(uint8 address, uint8 subaddress){
 451              		.loc 1 159 0
 452              		.cfi_startproc
 453              		@ args = 0, pretend = 0, frame = 0
 454              		@ frame_needed = 0, uses_anonymous_args = 0
 455              	.LVL86:
 456 0000 38B5     		push	{r3, r4, r5, lr}
 457              		.cfi_def_cfa_offset 16
 458              		.cfi_offset 3, -16
 459              		.cfi_offset 4, -12
 460              		.cfi_offset 5, -8
 461              		.cfi_offset 14, -4
 462              		.loc 1 159 0
 463 0002 0546     		mov	r5, r0
 464 0004 0C46     		mov	r4, r1
 160:source01.c    ****     uint8 XLDA;
ARM GAS  C:\Users\mgnocco\AppData\Local\Temp\cc2AIrWY.s 			page 12


 161:source01.c    ****     uint8 SENS_HUB_ENDOP;
 162:source01.c    ****     uint8 Data;
 163:source01.c    ****     WriteControlRegisterSPI(LSM6DSRX_FUNC_CFG_ACCESS, 0x40); 
 465              		.loc 1 163 0
 466 0006 0120     		movs	r0, #1
 467              	.LVL87:
 468 0008 4021     		movs	r1, #64
 469              	.LVL88:
 470 000a FFF7FEFF 		bl	WriteControlRegisterSPI
 471              	.LVL89:
 164:source01.c    ****     CyDelay(1);
 472              		.loc 1 164 0
 473 000e 0120     		movs	r0, #1
 474 0010 FFF7FEFF 		bl	CyDelay
 475              	.LVL90:
 165:source01.c    ****     WriteControlRegisterSPI(LSM6DSRX_SLV0_ADD, address | 0x01); 
 476              		.loc 1 165 0
 477 0014 45F00101 		orr	r1, r5, #1
 478 0018 1520     		movs	r0, #21
 479 001a FFF7FEFF 		bl	WriteControlRegisterSPI
 480              	.LVL91:
 166:source01.c    ****     CyDelay(1);   
 481              		.loc 1 166 0
 482 001e 0120     		movs	r0, #1
 483 0020 FFF7FEFF 		bl	CyDelay
 484              	.LVL92:
 167:source01.c    ****     WriteControlRegisterSPI(LSM6DSRX_SLV0_SUBADD, subaddress); 
 485              		.loc 1 167 0
 486 0024 2146     		mov	r1, r4
 487 0026 1620     		movs	r0, #22
 488 0028 FFF7FEFF 		bl	WriteControlRegisterSPI
 489              	.LVL93:
 168:source01.c    ****     CyDelay(1);
 490              		.loc 1 168 0
 491 002c 0120     		movs	r0, #1
 492 002e FFF7FEFF 		bl	CyDelay
 493              	.LVL94:
 169:source01.c    ****     WriteControlRegisterSPI(LSM6DSRX_SLV0_CONFIG, 0x01); //ODR = 288Hz, FSR=+/-2g, LPF2 disabled
 494              		.loc 1 169 0
 495 0032 0121     		movs	r1, #1
 496 0034 1720     		movs	r0, #23
 497 0036 FFF7FEFF 		bl	WriteControlRegisterSPI
 498              	.LVL95:
 170:source01.c    ****     CyDelay(1);
 499              		.loc 1 170 0
 500 003a 0120     		movs	r0, #1
 501 003c FFF7FEFF 		bl	CyDelay
 502              	.LVL96:
 171:source01.c    ****     WriteControlRegisterSPI(LSM6DSRX_MASTER_CONFIG, 0x4C); //ODR = 288Hz, FSR=+/-2g, LPF2 disabled
 503              		.loc 1 171 0
 504 0040 4C21     		movs	r1, #76
 505 0042 1420     		movs	r0, #20
 506 0044 FFF7FEFF 		bl	WriteControlRegisterSPI
 507              	.LVL97:
 172:source01.c    ****     CyDelay(1);
 508              		.loc 1 172 0
 509 0048 0120     		movs	r0, #1
ARM GAS  C:\Users\mgnocco\AppData\Local\Temp\cc2AIrWY.s 			page 13


 510 004a FFF7FEFF 		bl	CyDelay
 511              	.LVL98:
 173:source01.c    ****     WriteControlRegisterSPI(LSM6DSRX_FUNC_CFG_ACCESS, 0x00); 
 512              		.loc 1 173 0
 513 004e 0120     		movs	r0, #1
 514 0050 0021     		movs	r1, #0
 515 0052 FFF7FEFF 		bl	WriteControlRegisterSPI
 516              	.LVL99:
 174:source01.c    ****     ReadControlRegisterSPI(LSM6DSRX_OUTX_H_A); 
 517              		.loc 1 174 0
 518 0056 2920     		movs	r0, #41
 519 0058 FFF7FEFF 		bl	ReadControlRegisterSPI
 520              	.LVL100:
 521              	.L26:
 175:source01.c    ****     
 176:source01.c    ****     do 
 177:source01.c    ****     {
 178:source01.c    ****         XLDA = ReadControlRegisterSPI(LSM6DSRX_STATUS_REG);  
 522              		.loc 1 178 0 discriminator 1
 523 005c 1E20     		movs	r0, #30
 524 005e FFF7FEFF 		bl	ReadControlRegisterSPI
 525              	.LVL101:
 179:source01.c    ****         
 180:source01.c    ****     }
 181:source01.c    ****     while ((XLDA & 0b00000001) == 0); 
 526              		.loc 1 181 0 discriminator 1
 527 0062 C207     		lsls	r2, r0, #31
 528 0064 FAD5     		bpl	.L26
 529              	.LVL102:
 530              	.L30:
 182:source01.c    ****     
 183:source01.c    ****     
 184:source01.c    ****     do 
 185:source01.c    ****     {
 186:source01.c    ****         SENS_HUB_ENDOP = ReadControlRegisterSPI(LSM6DSRX_STATUS_MASTER_MAINPAGE);
 531              		.loc 1 186 0 discriminator 1
 532 0066 3920     		movs	r0, #57
 533 0068 FFF7FEFF 		bl	ReadControlRegisterSPI
 534              	.LVL103:
 187:source01.c    ****         
 188:source01.c    ****     }
 189:source01.c    ****     while ((SENS_HUB_ENDOP & 0b00000001) == 0);
 535              		.loc 1 189 0 discriminator 1
 536 006c C307     		lsls	r3, r0, #31
 537 006e FAD5     		bpl	.L30
 190:source01.c    **** 
 191:source01.c    ****     WriteControlRegisterSPI(LSM6DSRX_FUNC_CFG_ACCESS, 0x40); 
 538              		.loc 1 191 0
 539 0070 4021     		movs	r1, #64
 540 0072 0120     		movs	r0, #1
 541              	.LVL104:
 542 0074 FFF7FEFF 		bl	WriteControlRegisterSPI
 543              	.LVL105:
 192:source01.c    ****     CyDelay(1);
 544              		.loc 1 192 0
 545 0078 0120     		movs	r0, #1
 546 007a FFF7FEFF 		bl	CyDelay
ARM GAS  C:\Users\mgnocco\AppData\Local\Temp\cc2AIrWY.s 			page 14


 547              	.LVL106:
 193:source01.c    ****     WriteControlRegisterSPI(LSM6DSRX_MASTER_CONFIG, 0x08); 
 548              		.loc 1 193 0
 549 007e 0821     		movs	r1, #8
 550 0080 1420     		movs	r0, #20
 551 0082 FFF7FEFF 		bl	WriteControlRegisterSPI
 552              	.LVL107:
 194:source01.c    ****     CyDelay(1);
 553              		.loc 1 194 0
 554 0086 0120     		movs	r0, #1
 555 0088 FFF7FEFF 		bl	CyDelay
 556              	.LVL108:
 195:source01.c    ****     CyDelayUs(300);  
 557              		.loc 1 195 0
 558 008c 4FF49670 		mov	r0, #300
 559 0090 FFF7FEFF 		bl	CyDelayUs
 560              	.LVL109:
 196:source01.c    ****     
 197:source01.c    ****     ReadControlRegisterSPI(LSM6DSRX_WHO_AM_I);  
 561              		.loc 1 197 0
 562 0094 0F20     		movs	r0, #15
 563 0096 FFF7FEFF 		bl	ReadControlRegisterSPI
 564              	.LVL110:
 198:source01.c    ****     
 199:source01.c    ****     Data = ReadControlRegisterSPI(LSM6DSRX_SENSOR_HUB_1);  
 565              		.loc 1 199 0
 566 009a 0220     		movs	r0, #2
 567 009c FFF7FEFF 		bl	ReadControlRegisterSPI
 568              	.LVL111:
 569 00a0 0446     		mov	r4, r0
 570              	.LVL112:
 200:source01.c    ****     WriteControlRegisterSPI(LSM6DSRX_FUNC_CFG_ACCESS, 0x00); 
 571              		.loc 1 200 0
 572 00a2 0021     		movs	r1, #0
 573 00a4 0120     		movs	r0, #1
 574 00a6 FFF7FEFF 		bl	WriteControlRegisterSPI
 575              	.LVL113:
 201:source01.c    ****     UART_PutChar(Data);
 576              		.loc 1 201 0
 577 00aa 2046     		mov	r0, r4
 578 00ac FFF7FEFF 		bl	UART_PutChar
 579              	.LVL114:
 202:source01.c    ****     return Data;
 203:source01.c    **** }
 580              		.loc 1 203 0
 581 00b0 2046     		mov	r0, r4
 582 00b2 38BD     		pop	{r3, r4, r5, pc}
 583              		.cfi_endproc
 584              	.LFE68:
 585              		.size	OneShot_ReadRoutine, .-OneShot_ReadRoutine
 586              		.section	.text.Continuous_ReadRoutine,"ax",%progbits
 587              		.align	1
 588              		.global	Continuous_ReadRoutine
 589              		.thumb
 590              		.thumb_func
 591              		.type	Continuous_ReadRoutine, %function
 592              	Continuous_ReadRoutine:
ARM GAS  C:\Users\mgnocco\AppData\Local\Temp\cc2AIrWY.s 			page 15


 593              	.LFB69:
 204:source01.c    **** 
 205:source01.c    **** void Continuous_ReadRoutine(uint8 address, uint8 subaddress, uint8 slave_config){
 594              		.loc 1 205 0
 595              		.cfi_startproc
 596              		@ args = 0, pretend = 0, frame = 0
 597              		@ frame_needed = 0, uses_anonymous_args = 0
 598              	.LVL115:
 599 0000 38B5     		push	{r3, r4, r5, lr}
 600              		.cfi_def_cfa_offset 16
 601              		.cfi_offset 3, -16
 602              		.cfi_offset 4, -12
 603              		.cfi_offset 5, -8
 604              		.cfi_offset 14, -4
 605              		.loc 1 205 0
 606 0002 0546     		mov	r5, r0
 607 0004 0C46     		mov	r4, r1
 206:source01.c    ****  
 207:source01.c    ****     WriteControlRegisterSPI(LSM6DSRX_FUNC_CFG_ACCESS, 0x40);
 608              		.loc 1 207 0
 609 0006 0120     		movs	r0, #1
 610              	.LVL116:
 611 0008 4021     		movs	r1, #64
 612              	.LVL117:
 613 000a FFF7FEFF 		bl	WriteControlRegisterSPI
 614              	.LVL118:
 208:source01.c    ****     CyDelay(1);
 615              		.loc 1 208 0
 616 000e 0120     		movs	r0, #1
 617 0010 FFF7FEFF 		bl	CyDelay
 618              	.LVL119:
 209:source01.c    ****     WriteControlRegisterSPI(LSM6DSRX_SLV0_ADD, address | 0x01);  
 619              		.loc 1 209 0
 620 0014 45F00101 		orr	r1, r5, #1
 621 0018 1520     		movs	r0, #21
 622 001a FFF7FEFF 		bl	WriteControlRegisterSPI
 623              	.LVL120:
 210:source01.c    ****     CyDelay(1);  
 624              		.loc 1 210 0
 625 001e 0120     		movs	r0, #1
 626 0020 FFF7FEFF 		bl	CyDelay
 627              	.LVL121:
 211:source01.c    ****     WriteControlRegisterSPI(LSM6DSRX_SLV0_SUBADD, subaddress); 
 628              		.loc 1 211 0
 629 0024 2146     		mov	r1, r4
 630 0026 1620     		movs	r0, #22
 631 0028 FFF7FEFF 		bl	WriteControlRegisterSPI
 632              	.LVL122:
 212:source01.c    ****     CyDelay(1);
 633              		.loc 1 212 0
 634 002c 0120     		movs	r0, #1
 635 002e FFF7FEFF 		bl	CyDelay
 636              	.LVL123:
 213:source01.c    ****     WriteControlRegisterSPI(LSM6DSRX_SLV0_CONFIG, 0x06); //ODR = 288Hz, FSR=+/-2g, LPF2 disabled
 637              		.loc 1 213 0
 638 0032 0621     		movs	r1, #6
 639 0034 1720     		movs	r0, #23
ARM GAS  C:\Users\mgnocco\AppData\Local\Temp\cc2AIrWY.s 			page 16


 640 0036 FFF7FEFF 		bl	WriteControlRegisterSPI
 641              	.LVL124:
 214:source01.c    ****     CyDelay(1);
 642              		.loc 1 214 0
 643 003a 0120     		movs	r0, #1
 644 003c FFF7FEFF 		bl	CyDelay
 645              	.LVL125:
 215:source01.c    ****     WriteControlRegisterSPI(LSM6DSRX_MASTER_CONFIG, 0x4C); //ODR = 288Hz, FSR=+/-2g, LPF2 disabled
 646              		.loc 1 215 0
 647 0040 4C21     		movs	r1, #76
 648 0042 1420     		movs	r0, #20
 649 0044 FFF7FEFF 		bl	WriteControlRegisterSPI
 650              	.LVL126:
 216:source01.c    ****     CyDelay(1);
 651              		.loc 1 216 0
 652 0048 0120     		movs	r0, #1
 653 004a FFF7FEFF 		bl	CyDelay
 654              	.LVL127:
 217:source01.c    ****     WriteControlRegisterSPI(LSM6DSRX_FUNC_CFG_ACCESS, 0x00); 
 655              		.loc 1 217 0
 656 004e 0120     		movs	r0, #1
 657 0050 0021     		movs	r1, #0
 658 0052 FFF7FEFF 		bl	WriteControlRegisterSPI
 659              	.LVL128:
 218:source01.c    ****     CyDelay(1);
 219:source01.c    ****  }
 660              		.loc 1 219 0
 661 0056 BDE83840 		pop	{r3, r4, r5, lr}
 662              		.cfi_restore 14
 663              		.cfi_restore 5
 664              		.cfi_restore 4
 665              		.cfi_restore 3
 666              		.cfi_def_cfa_offset 0
 218:source01.c    ****     CyDelay(1);
 667              		.loc 1 218 0
 668 005a 0120     		movs	r0, #1
 669 005c FFF7FEBF 		b	CyDelay
 670              	.LVL129:
 671              		.cfi_endproc
 672              	.LFE69:
 673              		.size	Continuous_ReadRoutine, .-Continuous_ReadRoutine
 674              		.section	.text.OneShot_WriteRoutine,"ax",%progbits
 675              		.align	1
 676              		.global	OneShot_WriteRoutine
 677              		.thumb
 678              		.thumb_func
 679              		.type	OneShot_WriteRoutine, %function
 680              	OneShot_WriteRoutine:
 681              	.LFB70:
 220:source01.c    **** /*
 221:source01.c    **** void Read( uint8 slave_config){
 222:source01.c    ****     uint8 XLDA;
 223:source01.c    ****     uint8 SENS_HUB_ENDOP;
 224:source01.c    ****     uint8 i;
 225:source01.c    ****     ReadControlRegisterSPI(LSM6DSRX_WHO_AM_I); 
 226:source01.c    ****     do 
 227:source01.c    ****     {
ARM GAS  C:\Users\mgnocco\AppData\Local\Temp\cc2AIrWY.s 			page 17


 228:source01.c    ****         XLDA = ReadControlRegisterSPI(LSM6DSRX_STATUS_REG);        
 229:source01.c    ****     }
 230:source01.c    ****     while ((XLDA & 0b00000001) == 0);
 231:source01.c    **** 
 232:source01.c    ****     do 
 233:source01.c    ****     {
 234:source01.c    ****         SENS_HUB_ENDOP = ReadControlRegisterSPI(LSM6DSRX_STATUS_MASTER_MAINPAGE);
 235:source01.c    ****     }
 236:source01.c    ****     while ((SENS_HUB_ENDOP & 0b00000001) == 0);
 237:source01.c    **** 
 238:source01.c    ****     WriteControlRegisterSPI(LSM6DSRX_FUNC_CFG_ACCESS, 0x40); 
 239:source01.c    ****     CyDelay(1);
 240:source01.c    ****     WriteControlRegisterSPI(LSM6DSRX_MASTER_CONFIG, 0x08); 
 241:source01.c    ****     CyDelay(1);
 242:source01.c    ****     CyDelayUs(300);   
 243:source01.c    ****     for (i=0; i < slave_config; i++)
 244:source01.c    ****     {
 245:source01.c    ****         Mag[i]= ReadControlRegisterSPI(SensorHub[i]);    
 246:source01.c    ****     }
 247:source01.c    ****     WriteControlRegisterSPI(LSM6DSRX_FUNC_CFG_ACCESS, 0x00); 
 248:source01.c    **** }
 249:source01.c    **** */
 250:source01.c    **** 
 251:source01.c    **** void OneShot_WriteRoutine (uint8 address, uint8 subaddress, uint8 data){
 682              		.loc 1 251 0
 683              		.cfi_startproc
 684              		@ args = 0, pretend = 0, frame = 0
 685              		@ frame_needed = 0, uses_anonymous_args = 0
 686              	.LVL130:
 687 0000 70B5     		push	{r4, r5, r6, lr}
 688              		.cfi_def_cfa_offset 16
 689              		.cfi_offset 4, -16
 690              		.cfi_offset 5, -12
 691              		.cfi_offset 6, -8
 692              		.cfi_offset 14, -4
 693              		.loc 1 251 0
 694 0002 0646     		mov	r6, r0
 695 0004 0D46     		mov	r5, r1
 696 0006 1446     		mov	r4, r2
 252:source01.c    ****     uint8 WR_ONCE_DONE;
 253:source01.c    ****     WriteControlRegisterSPI(LSM6DSRX_FUNC_CFG_ACCESS, 0x40);
 697              		.loc 1 253 0
 698 0008 4021     		movs	r1, #64
 699              	.LVL131:
 700 000a 0120     		movs	r0, #1
 701              	.LVL132:
 702 000c FFF7FEFF 		bl	WriteControlRegisterSPI
 703              	.LVL133:
 254:source01.c    ****     CyDelay(1);
 704              		.loc 1 254 0
 705 0010 0120     		movs	r0, #1
 706 0012 FFF7FEFF 		bl	CyDelay
 707              	.LVL134:
 255:source01.c    ****     WriteControlRegisterSPI(LSM6DSRX_SLV0_ADD, address | 0x00);
 708              		.loc 1 255 0
 709 0016 3146     		mov	r1, r6
 710 0018 1520     		movs	r0, #21
ARM GAS  C:\Users\mgnocco\AppData\Local\Temp\cc2AIrWY.s 			page 18


 711 001a FFF7FEFF 		bl	WriteControlRegisterSPI
 712              	.LVL135:
 256:source01.c    ****     CyDelay(1);    
 713              		.loc 1 256 0
 714 001e 0120     		movs	r0, #1
 715 0020 FFF7FEFF 		bl	CyDelay
 716              	.LVL136:
 257:source01.c    ****     WriteControlRegisterSPI(LSM6DSRX_SLV0_SUBADD, subaddress); 
 717              		.loc 1 257 0
 718 0024 2946     		mov	r1, r5
 719 0026 1620     		movs	r0, #22
 720 0028 FFF7FEFF 		bl	WriteControlRegisterSPI
 721              	.LVL137:
 258:source01.c    ****     CyDelay(1);
 722              		.loc 1 258 0
 723 002c 0120     		movs	r0, #1
 724 002e FFF7FEFF 		bl	CyDelay
 725              	.LVL138:
 259:source01.c    ****     WriteControlRegisterSPI(LSM6DSRX_SLV0_CONFIG, 0x00); //ODR = 288Hz, FSR=+/-2g, LPF2 disabled
 726              		.loc 1 259 0
 727 0032 0021     		movs	r1, #0
 728 0034 1720     		movs	r0, #23
 729 0036 FFF7FEFF 		bl	WriteControlRegisterSPI
 730              	.LVL139:
 260:source01.c    ****     CyDelay(1);
 731              		.loc 1 260 0
 732 003a 0120     		movs	r0, #1
 733 003c FFF7FEFF 		bl	CyDelay
 734              	.LVL140:
 261:source01.c    ****      
 262:source01.c    ****     WriteControlRegisterSPI(LSM6DSRX_DATAWRITE_SLV0, data); //ODR = 288Hz, FSR=+/-2g, LPF2 disabled
 735              		.loc 1 262 0
 736 0040 2146     		mov	r1, r4
 737 0042 2120     		movs	r0, #33
 738 0044 FFF7FEFF 		bl	WriteControlRegisterSPI
 739              	.LVL141:
 263:source01.c    ****     CyDelay(1);
 740              		.loc 1 263 0
 741 0048 0120     		movs	r0, #1
 742 004a FFF7FEFF 		bl	CyDelay
 743              	.LVL142:
 264:source01.c    ****     WriteControlRegisterSPI(LSM6DSRX_MASTER_CONFIG, 0x4C); //ODR = 288Hz, FSR=+/-2g, LPF2 disabled
 744              		.loc 1 264 0
 745 004e 1420     		movs	r0, #20
 746 0050 4C21     		movs	r1, #76
 747 0052 FFF7FEFF 		bl	WriteControlRegisterSPI
 748              	.LVL143:
 265:source01.c    ****     CyDelay(1);
 749              		.loc 1 265 0
 750 0056 0120     		movs	r0, #1
 751 0058 FFF7FEFF 		bl	CyDelay
 752              	.LVL144:
 753              	.L35:
 266:source01.c    ****         do 
 267:source01.c    ****     {
 268:source01.c    ****         WR_ONCE_DONE = ReadControlRegisterSPI(LSM6DSRX_STATUS_MASTER);
 754              		.loc 1 268 0 discriminator 1
ARM GAS  C:\Users\mgnocco\AppData\Local\Temp\cc2AIrWY.s 			page 19


 755 005c 2220     		movs	r0, #34
 756 005e FFF7FEFF 		bl	ReadControlRegisterSPI
 757              	.LVL145:
 269:source01.c    ****     }
 270:source01.c    ****     while ((WR_ONCE_DONE & 0b10000000) == 0);
 758              		.loc 1 270 0 discriminator 1
 759 0062 0306     		lsls	r3, r0, #24
 760 0064 FAD5     		bpl	.L35
 271:source01.c    ****     
 272:source01.c    ****     WriteControlRegisterSPI(LSM6DSRX_MASTER_CONFIG, 0x08); 
 761              		.loc 1 272 0
 762 0066 0821     		movs	r1, #8
 763 0068 1420     		movs	r0, #20
 764              	.LVL146:
 765 006a FFF7FEFF 		bl	WriteControlRegisterSPI
 766              	.LVL147:
 273:source01.c    ****     CyDelayUs(300);   
 767              		.loc 1 273 0
 768 006e 4FF49670 		mov	r0, #300
 769 0072 FFF7FEFF 		bl	CyDelayUs
 770              	.LVL148:
 274:source01.c    ****     WriteControlRegisterSPI(LSM6DSRX_FUNC_CFG_ACCESS, 0x00); 
 275:source01.c    ****     
 276:source01.c    **** }
 771              		.loc 1 276 0
 772 0076 BDE87040 		pop	{r4, r5, r6, lr}
 773              		.cfi_restore 14
 774              		.cfi_restore 6
 775              		.cfi_restore 5
 776              		.cfi_restore 4
 777              		.cfi_def_cfa_offset 0
 274:source01.c    ****     WriteControlRegisterSPI(LSM6DSRX_FUNC_CFG_ACCESS, 0x00); 
 778              		.loc 1 274 0
 779 007a 0021     		movs	r1, #0
 780 007c 0120     		movs	r0, #1
 781 007e FFF7FEBF 		b	WriteControlRegisterSPI
 782              	.LVL149:
 783              		.cfi_endproc
 784              	.LFE70:
 785              		.size	OneShot_WriteRoutine, .-OneShot_WriteRoutine
 786              		.section	.text.ReadAcc,"ax",%progbits
 787              		.align	1
 788              		.global	ReadAcc
 789              		.thumb
 790              		.thumb_func
 791              		.type	ReadAcc, %function
 792              	ReadAcc:
 793              	.LFB71:
 277:source01.c    **** 
 278:source01.c    **** 
 279:source01.c    **** /*******************************************************************************
 280:source01.c    **** * Function Name: Read Acc's Data of IMU n
 281:source01.c    **** *********************************************************************************/
 282:source01.c    **** void ReadAcc()
 283:source01.c    **** {   uint8 low=0, high=0;
 794              		.loc 1 283 0
 795              		.cfi_startproc
ARM GAS  C:\Users\mgnocco\AppData\Local\Temp\cc2AIrWY.s 			page 20


 796              		@ args = 0, pretend = 0, frame = 0
 797              		@ frame_needed = 0, uses_anonymous_args = 0
 798              	.LVL150:
 799 0000 38B5     		push	{r3, r4, r5, lr}
 800              		.cfi_def_cfa_offset 16
 801              		.cfi_offset 3, -16
 802              		.cfi_offset 4, -12
 803              		.cfi_offset 5, -8
 804              		.cfi_offset 14, -4
 284:source01.c    ****    
 285:source01.c    ****     low=ReadControlRegisterSPI(LSM6DSRX_OUTX_L_A);
 805              		.loc 1 285 0
 806 0002 2820     		movs	r0, #40
 807 0004 FFF7FEFF 		bl	ReadControlRegisterSPI
 808              	.LVL151:
 809 0008 0546     		mov	r5, r0
 810              	.LVL152:
 286:source01.c    ****     high=ReadControlRegisterSPI(LSM6DSRX_OUTX_H_A);
 811              		.loc 1 286 0
 812 000a 2920     		movs	r0, #41
 813 000c FFF7FEFF 		bl	ReadControlRegisterSPI
 814              	.LVL153:
 287:source01.c    **** 	Accel[0] = high; 
 815              		.loc 1 287 0
 816 0010 0A4C     		ldr	r4, .L38
 817 0012 2070     		strb	r0, [r4]
 288:source01.c    **** 	Accel[1] = low; 
 289:source01.c    **** 	low=0;
 290:source01.c    ****     high=0;
 291:source01.c    **** 			
 292:source01.c    **** 	//read Y
 293:source01.c    ****     low=ReadControlRegisterSPI(LSM6DSRX_OUTY_L_A);
 818              		.loc 1 293 0
 819 0014 2A20     		movs	r0, #42
 820              	.LVL154:
 288:source01.c    **** 	Accel[1] = low; 
 821              		.loc 1 288 0
 822 0016 6570     		strb	r5, [r4, #1]
 823              	.LVL155:
 824              		.loc 1 293 0
 825 0018 FFF7FEFF 		bl	ReadControlRegisterSPI
 826              	.LVL156:
 827 001c 0546     		mov	r5, r0
 828              	.LVL157:
 294:source01.c    ****     high=ReadControlRegisterSPI(LSM6DSRX_OUTY_H_A);
 829              		.loc 1 294 0
 830 001e 2B20     		movs	r0, #43
 831 0020 FFF7FEFF 		bl	ReadControlRegisterSPI
 832              	.LVL158:
 295:source01.c    **** 	Accel[2] = high; 
 833              		.loc 1 295 0
 834 0024 A070     		strb	r0, [r4, #2]
 296:source01.c    **** 	Accel[3] = low; 
 297:source01.c    **** 	low=0;
 298:source01.c    ****     high=0;
 299:source01.c    **** 	 	
 300:source01.c    **** 	//read Z
ARM GAS  C:\Users\mgnocco\AppData\Local\Temp\cc2AIrWY.s 			page 21


 301:source01.c    ****     low=ReadControlRegisterSPI(LSM6DSRX_OUTZ_L_A);
 835              		.loc 1 301 0
 836 0026 2C20     		movs	r0, #44
 837              	.LVL159:
 296:source01.c    **** 	Accel[3] = low; 
 838              		.loc 1 296 0
 839 0028 E570     		strb	r5, [r4, #3]
 840              	.LVL160:
 841              		.loc 1 301 0
 842 002a FFF7FEFF 		bl	ReadControlRegisterSPI
 843              	.LVL161:
 844 002e 0546     		mov	r5, r0
 845              	.LVL162:
 302:source01.c    ****     high=ReadControlRegisterSPI(LSM6DSRX_OUTZ_H_A);
 846              		.loc 1 302 0
 847 0030 2D20     		movs	r0, #45
 848 0032 FFF7FEFF 		bl	ReadControlRegisterSPI
 849              	.LVL163:
 303:source01.c    **** 	Accel[4] = high; 
 304:source01.c    **** 	Accel[5] = low;
 850              		.loc 1 304 0
 851 0036 6571     		strb	r5, [r4, #5]
 852              	.LVL164:
 303:source01.c    **** 	Accel[4] = high; 
 853              		.loc 1 303 0
 854 0038 2071     		strb	r0, [r4, #4]
 855              		.loc 1 304 0
 856 003a 38BD     		pop	{r3, r4, r5, pc}
 857              	.L39:
 858              		.align	2
 859              	.L38:
 860 003c 00000000 		.word	Accel
 861              		.cfi_endproc
 862              	.LFE71:
 863              		.size	ReadAcc, .-ReadAcc
 864              		.section	.text.ReadGyro,"ax",%progbits
 865              		.align	1
 866              		.global	ReadGyro
 867              		.thumb
 868              		.thumb_func
 869              		.type	ReadGyro, %function
 870              	ReadGyro:
 871              	.LFB72:
 305:source01.c    **** 	low=0;
 306:source01.c    ****     high=0;
 307:source01.c    **** }
 308:source01.c    **** 
 309:source01.c    **** 
 310:source01.c    **** /*******************************************************************************
 311:source01.c    **** * Function Name: Read Gyro's Data of IMU n
 312:source01.c    **** *********************************************************************************/
 313:source01.c    **** void ReadGyro()
 314:source01.c    **** {   uint8 low=0, high=0;
 872              		.loc 1 314 0
 873              		.cfi_startproc
 874              		@ args = 0, pretend = 0, frame = 0
 875              		@ frame_needed = 0, uses_anonymous_args = 0
ARM GAS  C:\Users\mgnocco\AppData\Local\Temp\cc2AIrWY.s 			page 22


 876              	.LVL165:
 877 0000 38B5     		push	{r3, r4, r5, lr}
 878              		.cfi_def_cfa_offset 16
 879              		.cfi_offset 3, -16
 880              		.cfi_offset 4, -12
 881              		.cfi_offset 5, -8
 882              		.cfi_offset 14, -4
 315:source01.c    ****     low=ReadControlRegisterSPI(LSM6DSRX_OUTX_L_G);
 883              		.loc 1 315 0
 884 0002 2220     		movs	r0, #34
 885 0004 FFF7FEFF 		bl	ReadControlRegisterSPI
 886              	.LVL166:
 887 0008 0546     		mov	r5, r0
 888              	.LVL167:
 316:source01.c    ****     high=ReadControlRegisterSPI(LSM6DSRX_OUTX_H_G);
 889              		.loc 1 316 0
 890 000a 2320     		movs	r0, #35
 891 000c FFF7FEFF 		bl	ReadControlRegisterSPI
 892              	.LVL168:
 317:source01.c    **** 	Gyro[0] = high; 
 893              		.loc 1 317 0
 894 0010 0A4C     		ldr	r4, .L41
 895 0012 2070     		strb	r0, [r4]
 318:source01.c    **** 	Gyro[1] = low; 
 319:source01.c    **** 	low=0, high=0;
 320:source01.c    **** 			
 321:source01.c    **** 	//read Y
 322:source01.c    ****     low=ReadControlRegisterSPI(LSM6DSRX_OUTY_L_G);
 896              		.loc 1 322 0
 897 0014 2420     		movs	r0, #36
 898              	.LVL169:
 318:source01.c    **** 	Gyro[1] = low; 
 899              		.loc 1 318 0
 900 0016 6570     		strb	r5, [r4, #1]
 901              	.LVL170:
 902              		.loc 1 322 0
 903 0018 FFF7FEFF 		bl	ReadControlRegisterSPI
 904              	.LVL171:
 905 001c 0546     		mov	r5, r0
 906              	.LVL172:
 323:source01.c    ****     high=ReadControlRegisterSPI(LSM6DSRX_OUTY_H_G);
 907              		.loc 1 323 0
 908 001e 2520     		movs	r0, #37
 909 0020 FFF7FEFF 		bl	ReadControlRegisterSPI
 910              	.LVL173:
 324:source01.c    **** 	Gyro[2] = high; 
 911              		.loc 1 324 0
 912 0024 A070     		strb	r0, [r4, #2]
 325:source01.c    **** 	Gyro[3] = low; 
 326:source01.c    **** 	low=0, high=0;
 327:source01.c    **** 		
 328:source01.c    **** 	//read Z
 329:source01.c    ****     low=ReadControlRegisterSPI(LSM6DSRX_OUTZ_L_G);
 913              		.loc 1 329 0
 914 0026 2620     		movs	r0, #38
 915              	.LVL174:
 325:source01.c    **** 	Gyro[3] = low; 
ARM GAS  C:\Users\mgnocco\AppData\Local\Temp\cc2AIrWY.s 			page 23


 916              		.loc 1 325 0
 917 0028 E570     		strb	r5, [r4, #3]
 918              	.LVL175:
 919              		.loc 1 329 0
 920 002a FFF7FEFF 		bl	ReadControlRegisterSPI
 921              	.LVL176:
 922 002e 0546     		mov	r5, r0
 923              	.LVL177:
 330:source01.c    ****     high=ReadControlRegisterSPI(LSM6DSRX_OUTZ_H_G);
 924              		.loc 1 330 0
 925 0030 2720     		movs	r0, #39
 926 0032 FFF7FEFF 		bl	ReadControlRegisterSPI
 927              	.LVL178:
 331:source01.c    **** 	Gyro[4] = high; 
 332:source01.c    **** 	Gyro[5] = low;
 928              		.loc 1 332 0
 929 0036 6571     		strb	r5, [r4, #5]
 930              	.LVL179:
 331:source01.c    **** 	Gyro[4] = high; 
 931              		.loc 1 331 0
 932 0038 2071     		strb	r0, [r4, #4]
 933              		.loc 1 332 0
 934 003a 38BD     		pop	{r3, r4, r5, pc}
 935              	.L42:
 936              		.align	2
 937              	.L41:
 938 003c 00000000 		.word	Gyro
 939              		.cfi_endproc
 940              	.LFE72:
 941              		.size	ReadGyro, .-ReadGyro
 942              		.section	.text.ReadTemp,"ax",%progbits
 943              		.align	1
 944              		.global	ReadTemp
 945              		.thumb
 946              		.thumb_func
 947              		.type	ReadTemp, %function
 948              	ReadTemp:
 949              	.LFB73:
 333:source01.c    **** 	low=0, high=0;
 334:source01.c    **** }
 335:source01.c    **** 
 336:source01.c    **** /*******************************************************************************
 337:source01.c    **** * Function Name: Read Temperature Data of IMU n
 338:source01.c    **** *********************************************************************************/
 339:source01.c    **** void ReadTemp()
 340:source01.c    **** {
 950              		.loc 1 340 0
 951              		.cfi_startproc
 952              		@ args = 0, pretend = 0, frame = 0
 953              		@ frame_needed = 0, uses_anonymous_args = 0
 954              	.LVL180:
 955 0000 10B5     		push	{r4, lr}
 956              		.cfi_def_cfa_offset 8
 957              		.cfi_offset 4, -8
 958              		.cfi_offset 14, -4
 341:source01.c    **** 	uint8 low=0, high=0;	
 342:source01.c    ****     low=ReadControlRegisterSPI(LSM6DSRX_OUT_TEMP_L);
ARM GAS  C:\Users\mgnocco\AppData\Local\Temp\cc2AIrWY.s 			page 24


 959              		.loc 1 342 0
 960 0002 2020     		movs	r0, #32
 961 0004 FFF7FEFF 		bl	ReadControlRegisterSPI
 962              	.LVL181:
 963 0008 0446     		mov	r4, r0
 964              	.LVL182:
 343:source01.c    ****     high=ReadControlRegisterSPI(LSM6DSRX_OUT_TEMP_H);
 965              		.loc 1 343 0
 966 000a 2120     		movs	r0, #33
 967 000c FFF7FEFF 		bl	ReadControlRegisterSPI
 968              	.LVL183:
 344:source01.c    **** 
 345:source01.c    **** 	Temp[0] = high; 
 969              		.loc 1 345 0
 970 0010 014B     		ldr	r3, .L44
 971 0012 1870     		strb	r0, [r3]
 346:source01.c    **** 	Temp[1] = low; 
 972              		.loc 1 346 0
 973 0014 5C70     		strb	r4, [r3, #1]
 974              	.LVL184:
 975 0016 10BD     		pop	{r4, pc}
 976              	.L45:
 977              		.align	2
 978              	.L44:
 979 0018 00000000 		.word	Temp
 980              		.cfi_endproc
 981              	.LFE73:
 982              		.size	ReadTemp, .-ReadTemp
 983              		.section	.text.ReadIMU,"ax",%progbits
 984              		.align	1
 985              		.global	ReadIMU
 986              		.thumb
 987              		.thumb_func
 988              		.type	ReadIMU, %function
 989              	ReadIMU:
 990              	.LFB74:
 347:source01.c    **** 	low=0, high=0;
 348:source01.c    **** }
 349:source01.c    **** 
 350:source01.c    **** /*******************************************************************************
 351:source01.c    **** * Function Name: IMU Read
 352:source01.c    **** *********************************************************************************/	
 353:source01.c    **** void ReadIMU(){
 991              		.loc 1 353 0
 992              		.cfi_startproc
 993              		@ args = 0, pretend = 0, frame = 8
 994              		@ frame_needed = 0, uses_anonymous_args = 0
 995              	.LVL185:
 996 0000 13B5     		push	{r0, r1, r4, lr}
 997              		.cfi_def_cfa_offset 16
 998              		.cfi_offset 4, -8
 999              		.cfi_offset 14, -4
 354:source01.c    ****     uint16 tmp = 0, j = 0;
 355:source01.c    ****    // uint8 c = 1;
 356:source01.c    ****     int16 aux_int16;
 357:source01.c    ****     // Packet: header + imu id(uint8) + imu flags(uint8) + crc
 358:source01.c    ****     uint8 accX1;
ARM GAS  C:\Users\mgnocco\AppData\Local\Temp\cc2AIrWY.s 			page 25


 359:source01.c    ****     uint8 accX2;
 360:source01.c    ****     uint8 accY1;
 361:source01.c    ****     uint8 accY2;
 362:source01.c    ****     uint8 accZ1;
 363:source01.c    ****     uint8 accZ2;
 364:source01.c    ****     
 365:source01.c    ****     ChipSelectorIMU(0);
 1000              		.loc 1 365 0
 1001 0002 0020     		movs	r0, #0
 1002 0004 FFF7FEFF 		bl	ChipSelectorIMU
 1003              	.LVL186:
 366:source01.c    ****     ReadAcc();
 1004              		.loc 1 366 0
 1005 0008 FFF7FEFF 		bl	ReadAcc
 1006              	.LVL187:
 367:source01.c    ****    // ReadGyro();
 368:source01.c    ****    // ReadTemp();
 369:source01.c    ****     
 370:source01.c    ****     for (j = 0; j < 3; j++) {
 371:source01.c    ****         tmp = Accel[2*j];
 1007              		.loc 1 371 0
 1008 000c 184A     		ldr	r2, .L47
 1009              	.LVL188:
 372:source01.c    ****         g_imuNew.accel_value[j] = (int16)(tmp<<8 | Accel[2*j + 1]);
 1010              		.loc 1 372 0
 1011 000e 194C     		ldr	r4, .L47+4
 1012 0010 5378     		ldrb	r3, [r2, #1]	@ zero_extendqisi2
 1013 0012 1078     		ldrb	r0, [r2]	@ zero_extendqisi2
 1014 0014 9178     		ldrb	r1, [r2, #2]	@ zero_extendqisi2
 1015 0016 43EA0020 		orr	r0, r3, r0, lsl #8
 1016 001a D378     		ldrb	r3, [r2, #3]	@ zero_extendqisi2
 1017 001c 00B2     		sxth	r0, r0
 1018 001e 43EA0123 		orr	r3, r3, r1, lsl #8
 1019 0022 A380     		strh	r3, [r4, #4]	@ movhi
 1020 0024 1179     		ldrb	r1, [r2, #4]	@ zero_extendqisi2
 1021 0026 5379     		ldrb	r3, [r2, #5]	@ zero_extendqisi2
 1022 0028 6080     		strh	r0, [r4, #2]	@ movhi
 1023              	.LVL189:
 1024 002a 43EA0123 		orr	r3, r3, r1, lsl #8
 373:source01.c    ****     }
 374:source01.c    **** 
 375:source01.c    ****     /*
 376:source01.c    ****     for (j = 0; j < 3; j++) {
 377:source01.c    ****         tmp = Gyro[2*j];
 378:source01.c    ****         g_imuNew.gyro_value[j] = (int16)(tmp<<8 | Gyro[2*j + 1]);
 379:source01.c    ****     }      
 380:source01.c    ****     
 381:source01.c    ****     tmp = Temp[0];
 382:source01.c    ****     g_imuNew.temp_value = (int16)(tmp<<8 | Temp[1]);
 383:source01.c    ****     */
 384:source01.c    ****     
 385:source01.c    ****     aux_int16 = (int16) g_imuNew.accel_value[0];      
 1025              		.loc 1 385 0
 1026 002e ADF80600 		strh	r0, [sp, #6]	@ movhi
 386:source01.c    ****     accX1 = ((char*)(&aux_int16))[0];
 387:source01.c    ****     UART_PutChar(accX1); //MSB
 1027              		.loc 1 387 0
ARM GAS  C:\Users\mgnocco\AppData\Local\Temp\cc2AIrWY.s 			page 26


 1028 0032 C0B2     		uxtb	r0, r0
 372:source01.c    ****     }
 1029              		.loc 1 372 0
 1030 0034 E380     		strh	r3, [r4, #6]	@ movhi
 1031              	.LVL190:
 1032              		.loc 1 387 0
 1033 0036 FFF7FEFF 		bl	UART_PutChar
 1034              	.LVL191:
 388:source01.c    ****     
 389:source01.c    ****     accX2 = ((char*)(&aux_int16))[1];
 390:source01.c    ****     UART_PutChar(accX2);   //LSB
 1035              		.loc 1 390 0
 1036 003a 9DF80700 		ldrb	r0, [sp, #7]	@ zero_extendqisi2
 1037 003e FFF7FEFF 		bl	UART_PutChar
 1038              	.LVL192:
 391:source01.c    ****     
 392:source01.c    ****     accX1=0;
 393:source01.c    ****     accX2=0;
 394:source01.c    ****            
 395:source01.c    ****     aux_int16 = (int16) g_imuNew.accel_value[1];
 1039              		.loc 1 395 0
 1040 0042 A088     		ldrh	r0, [r4, #4]
 1041 0044 ADF80600 		strh	r0, [sp, #6]	@ movhi
 1042              	.LVL193:
 396:source01.c    ****     accY1 = ((char*)(&aux_int16))[0]; 
 397:source01.c    ****     UART_PutChar(accY1);
 1043              		.loc 1 397 0
 1044 0048 C0B2     		uxtb	r0, r0
 1045 004a FFF7FEFF 		bl	UART_PutChar
 1046              	.LVL194:
 398:source01.c    ****     
 399:source01.c    ****     accY2 = ((char*)(&aux_int16))[1];
 400:source01.c    ****     UART_PutChar(accY2);
 1047              		.loc 1 400 0
 1048 004e 9DF80700 		ldrb	r0, [sp, #7]	@ zero_extendqisi2
 1049 0052 FFF7FEFF 		bl	UART_PutChar
 1050              	.LVL195:
 401:source01.c    ****      
 402:source01.c    ****     accY1=0;
 403:source01.c    ****     accY2=0;       
 404:source01.c    ****  
 405:source01.c    ****     aux_int16 = (int16) g_imuNew.accel_value[2];
 1051              		.loc 1 405 0
 1052 0056 E088     		ldrh	r0, [r4, #6]
 1053 0058 ADF80600 		strh	r0, [sp, #6]	@ movhi
 1054              	.LVL196:
 406:source01.c    ****     accZ1 = ((char*)(&aux_int16))[0];
 407:source01.c    ****     UART_PutChar(accZ1);
 1055              		.loc 1 407 0
 1056 005c C0B2     		uxtb	r0, r0
 1057 005e FFF7FEFF 		bl	UART_PutChar
 1058              	.LVL197:
 408:source01.c    ****     
 409:source01.c    ****     accZ2 = ((char*)(&aux_int16))[1];
 410:source01.c    ****     UART_PutChar(accZ2);
 1059              		.loc 1 410 0
 1060 0062 9DF80700 		ldrb	r0, [sp, #7]	@ zero_extendqisi2
ARM GAS  C:\Users\mgnocco\AppData\Local\Temp\cc2AIrWY.s 			page 27


 411:source01.c    ****     
 412:source01.c    **** 
 413:source01.c    ****     accZ1=0;
 414:source01.c    ****     accZ2=0;
 415:source01.c    ****     /*
 416:source01.c    ****  index = 0;
 417:source01.c    **** while(!(UART_ReadTxStatus() & UART_TX_STS_COMPLETE) && index++ <= 1000){}
 418:source01.c    ****   
 419:source01.c    ****        aux_int16 = (int16) g_imu.gyro_value[0];
 420:source01.c    ****             single_packet[c + 1] = ((char*)(&aux_int16))[0];
 421:source01.c    ****             single_packet[c] = ((char*)(&aux_int16))[1];
 422:source01.c    **** 
 423:source01.c    ****             aux_int16 = (int16) g_imu.gyro_value[1];
 424:source01.c    ****             single_packet[c + 3] = ((char*)(&aux_int16))[0];
 425:source01.c    ****             single_packet[c + 2] = ((char*)(&aux_int16))[1];
 426:source01.c    **** 
 427:source01.c    ****             aux_int16 = (int16) g_imu.gyro_value[2];
 428:source01.c    ****             single_packet[c + 5] = ((char*)(&aux_int16))[0];
 429:source01.c    ****             single_packet[c + 4] = ((char*)(&aux_int16))[1];
 430:source01.c    **** 
 431:source01.c    ****             c = c + 6;
 432:source01.c    **** 
 433:source01.c    ****             aux_int16 = (int16) g_imu.temp_value;
 434:source01.c    ****             single_packet[c + 1] = ((char*)(&aux_int16))[0];
 435:source01.c    ****             single_packet[c] = ((char*)(&aux_int16))[1];
 436:source01.c    ****             
 437:source01.c    ****             for(k=0; k < packet_length; k++) {
 438:source01.c    ****             packet_data[k] = (uint8) single_packet[k]; 
 439:source01.c    ****         }
 440:source01.c    ****             c = 1;
 441:source01.c    ****             */
 442:source01.c    ****         
 443:source01.c    ****      
 444:source01.c    **** }
 1061              		.loc 1 444 0
 1062 0066 02B0     		add	sp, sp, #8
 1063              		.cfi_def_cfa_offset 8
 1064              		@ sp needed
 1065 0068 BDE81040 		pop	{r4, lr}
 1066              		.cfi_restore 14
 1067              		.cfi_restore 4
 1068              		.cfi_def_cfa_offset 0
 1069              	.LVL198:
 410:source01.c    ****     
 1070              		.loc 1 410 0
 1071 006c FFF7FEBF 		b	UART_PutChar
 1072              	.LVL199:
 1073              	.L48:
 1074              		.align	2
 1075              	.L47:
 1076 0070 00000000 		.word	Accel
 1077 0074 00000000 		.word	g_imuNew
 1078              		.cfi_endproc
 1079              	.LFE74:
 1080              		.size	ReadIMU, .-ReadIMU
 1081              		.text
 1082              	.Letext0:
ARM GAS  C:\Users\mgnocco\AppData\Local\Temp\cc2AIrWY.s 			page 28


 1083              		.file 2 "c:\\program files (x86)\\cypress\\psoc creator\\4.4\\psoc creator\\import\\gnu\\arm\\5.4.
 1084              		.file 3 "c:\\program files (x86)\\cypress\\psoc creator\\4.4\\psoc creator\\import\\gnu\\arm\\5.4.
 1085              		.file 4 "Generated_Source\\PSoC5/cytypes.h"
 1086              		.file 5 "globals.h"
 1087              		.file 6 "Generated_Source\\PSoC5/core_cm3.h"
 1088              		.file 7 "Generated_Source\\PSoC5/SPI_IMU.h"
 1089              		.file 8 "header01.h"
 1090              		.file 9 "Generated_Source\\PSoC5/CyLib.h"
 1091              		.file 10 "Generated_Source\\PSoC5/UART.h"