ARM GAS  C:\Users\mgnocco\AppData\Local\Temp\ccn1tU5b.s 			page 1


   1              		.syntax unified
   2              		.cpu cortex-m3
   3              		.fpu softvfp
   4              		.eabi_attribute 20, 1
   5              		.eabi_attribute 21, 1
   6              		.eabi_attribute 23, 3
   7              		.eabi_attribute 24, 1
   8              		.eabi_attribute 25, 1
   9              		.eabi_attribute 26, 1
  10              		.eabi_attribute 30, 4
  11              		.eabi_attribute 34, 1
  12              		.eabi_attribute 18, 4
  13              		.thumb
  14              		.syntax unified
  15              		.file	"SPI_IMU.c"
  16              		.text
  17              	.Ltext0:
  18              		.cfi_sections	.debug_frame
  19              		.section	.text.SPI_IMU_Enable,"ax",%progbits
  20              		.align	1
  21              		.global	SPI_IMU_Enable
  22              		.thumb
  23              		.thumb_func
  24              		.type	SPI_IMU_Enable, %function
  25              	SPI_IMU_Enable:
  26              	.LFB1:
  27              		.file 1 "Generated_Source\\PSoC5\\SPI_IMU.c"
   1:Generated_Source\PSoC5/SPI_IMU.c **** /*******************************************************************************
   2:Generated_Source\PSoC5/SPI_IMU.c **** * File Name: SPI_IMU.c
   3:Generated_Source\PSoC5/SPI_IMU.c **** * Version 2.50
   4:Generated_Source\PSoC5/SPI_IMU.c **** *
   5:Generated_Source\PSoC5/SPI_IMU.c **** * Description:
   6:Generated_Source\PSoC5/SPI_IMU.c **** *  This file provides all API functionality of the SPI Master component.
   7:Generated_Source\PSoC5/SPI_IMU.c **** *
   8:Generated_Source\PSoC5/SPI_IMU.c **** * Note:
   9:Generated_Source\PSoC5/SPI_IMU.c **** *  None.
  10:Generated_Source\PSoC5/SPI_IMU.c **** *
  11:Generated_Source\PSoC5/SPI_IMU.c **** ********************************************************************************
  12:Generated_Source\PSoC5/SPI_IMU.c **** * Copyright 2008-2015, Cypress Semiconductor Corporation.  All rights reserved.
  13:Generated_Source\PSoC5/SPI_IMU.c **** * You may use this file only in accordance with the license, terms, conditions,
  14:Generated_Source\PSoC5/SPI_IMU.c **** * disclaimers, and limitations in the end user license agreement accompanying
  15:Generated_Source\PSoC5/SPI_IMU.c **** * the software package with which this file was provided.
  16:Generated_Source\PSoC5/SPI_IMU.c **** *******************************************************************************/
  17:Generated_Source\PSoC5/SPI_IMU.c **** 
  18:Generated_Source\PSoC5/SPI_IMU.c **** #include "SPI_IMU_PVT.h"
  19:Generated_Source\PSoC5/SPI_IMU.c **** 
  20:Generated_Source\PSoC5/SPI_IMU.c **** #if(SPI_IMU_TX_SOFTWARE_BUF_ENABLED)
  21:Generated_Source\PSoC5/SPI_IMU.c ****     volatile uint8 SPI_IMU_txBuffer[SPI_IMU_TX_BUFFER_SIZE];
  22:Generated_Source\PSoC5/SPI_IMU.c ****     volatile uint8 SPI_IMU_txBufferFull;
  23:Generated_Source\PSoC5/SPI_IMU.c ****     volatile uint8 SPI_IMU_txBufferRead;
  24:Generated_Source\PSoC5/SPI_IMU.c ****     volatile uint8 SPI_IMU_txBufferWrite;
  25:Generated_Source\PSoC5/SPI_IMU.c **** #endif /* (SPI_IMU_TX_SOFTWARE_BUF_ENABLED) */
  26:Generated_Source\PSoC5/SPI_IMU.c **** 
  27:Generated_Source\PSoC5/SPI_IMU.c **** #if(SPI_IMU_RX_SOFTWARE_BUF_ENABLED)
  28:Generated_Source\PSoC5/SPI_IMU.c ****     volatile uint8 SPI_IMU_rxBuffer[SPI_IMU_RX_BUFFER_SIZE];
  29:Generated_Source\PSoC5/SPI_IMU.c ****     volatile uint8 SPI_IMU_rxBufferFull;
  30:Generated_Source\PSoC5/SPI_IMU.c ****     volatile uint8 SPI_IMU_rxBufferRead;
ARM GAS  C:\Users\mgnocco\AppData\Local\Temp\ccn1tU5b.s 			page 2


  31:Generated_Source\PSoC5/SPI_IMU.c ****     volatile uint8 SPI_IMU_rxBufferWrite;
  32:Generated_Source\PSoC5/SPI_IMU.c **** #endif /* (SPI_IMU_RX_SOFTWARE_BUF_ENABLED) */
  33:Generated_Source\PSoC5/SPI_IMU.c **** 
  34:Generated_Source\PSoC5/SPI_IMU.c **** uint8 SPI_IMU_initVar = 0u;
  35:Generated_Source\PSoC5/SPI_IMU.c **** 
  36:Generated_Source\PSoC5/SPI_IMU.c **** volatile uint8 SPI_IMU_swStatusTx;
  37:Generated_Source\PSoC5/SPI_IMU.c **** volatile uint8 SPI_IMU_swStatusRx;
  38:Generated_Source\PSoC5/SPI_IMU.c **** 
  39:Generated_Source\PSoC5/SPI_IMU.c **** 
  40:Generated_Source\PSoC5/SPI_IMU.c **** /*******************************************************************************
  41:Generated_Source\PSoC5/SPI_IMU.c **** * Function Name: SPI_IMU_Init
  42:Generated_Source\PSoC5/SPI_IMU.c **** ********************************************************************************
  43:Generated_Source\PSoC5/SPI_IMU.c **** *
  44:Generated_Source\PSoC5/SPI_IMU.c **** * Summary:
  45:Generated_Source\PSoC5/SPI_IMU.c **** *  Inits/Restores default SPIM configuration provided with customizer.
  46:Generated_Source\PSoC5/SPI_IMU.c **** *
  47:Generated_Source\PSoC5/SPI_IMU.c **** * Parameters:
  48:Generated_Source\PSoC5/SPI_IMU.c **** *  None.
  49:Generated_Source\PSoC5/SPI_IMU.c **** *
  50:Generated_Source\PSoC5/SPI_IMU.c **** * Return:
  51:Generated_Source\PSoC5/SPI_IMU.c **** *  None.
  52:Generated_Source\PSoC5/SPI_IMU.c **** *
  53:Generated_Source\PSoC5/SPI_IMU.c **** * Side Effects:
  54:Generated_Source\PSoC5/SPI_IMU.c **** *  When this function is called it initializes all of the necessary parameters
  55:Generated_Source\PSoC5/SPI_IMU.c **** *  for execution. i.e. setting the initial interrupt mask, configuring the
  56:Generated_Source\PSoC5/SPI_IMU.c **** *  interrupt service routine, configuring the bit-counter parameters and
  57:Generated_Source\PSoC5/SPI_IMU.c **** *  clearing the FIFO and Status Register.
  58:Generated_Source\PSoC5/SPI_IMU.c **** *
  59:Generated_Source\PSoC5/SPI_IMU.c **** * Reentrant:
  60:Generated_Source\PSoC5/SPI_IMU.c **** *  No.
  61:Generated_Source\PSoC5/SPI_IMU.c **** *
  62:Generated_Source\PSoC5/SPI_IMU.c **** *******************************************************************************/
  63:Generated_Source\PSoC5/SPI_IMU.c **** void SPI_IMU_Init(void) 
  64:Generated_Source\PSoC5/SPI_IMU.c **** {
  65:Generated_Source\PSoC5/SPI_IMU.c ****     /* Initialize the Bit counter */
  66:Generated_Source\PSoC5/SPI_IMU.c ****     SPI_IMU_COUNTER_PERIOD_REG = SPI_IMU_BITCTR_INIT;
  67:Generated_Source\PSoC5/SPI_IMU.c **** 
  68:Generated_Source\PSoC5/SPI_IMU.c ****     /* Init TX ISR  */
  69:Generated_Source\PSoC5/SPI_IMU.c ****     #if(0u != SPI_IMU_INTERNAL_TX_INT_ENABLED)
  70:Generated_Source\PSoC5/SPI_IMU.c ****         CyIntDisable         (SPI_IMU_TX_ISR_NUMBER);
  71:Generated_Source\PSoC5/SPI_IMU.c ****         CyIntSetPriority     (SPI_IMU_TX_ISR_NUMBER,  SPI_IMU_TX_ISR_PRIORITY);
  72:Generated_Source\PSoC5/SPI_IMU.c ****         (void) CyIntSetVector(SPI_IMU_TX_ISR_NUMBER, &SPI_IMU_TX_ISR);
  73:Generated_Source\PSoC5/SPI_IMU.c ****     #endif /* (0u != SPI_IMU_INTERNAL_TX_INT_ENABLED) */
  74:Generated_Source\PSoC5/SPI_IMU.c **** 
  75:Generated_Source\PSoC5/SPI_IMU.c ****     /* Init RX ISR  */
  76:Generated_Source\PSoC5/SPI_IMU.c ****     #if(0u != SPI_IMU_INTERNAL_RX_INT_ENABLED)
  77:Generated_Source\PSoC5/SPI_IMU.c ****         CyIntDisable         (SPI_IMU_RX_ISR_NUMBER);
  78:Generated_Source\PSoC5/SPI_IMU.c ****         CyIntSetPriority     (SPI_IMU_RX_ISR_NUMBER,  SPI_IMU_RX_ISR_PRIORITY);
  79:Generated_Source\PSoC5/SPI_IMU.c ****         (void) CyIntSetVector(SPI_IMU_RX_ISR_NUMBER, &SPI_IMU_RX_ISR);
  80:Generated_Source\PSoC5/SPI_IMU.c ****     #endif /* (0u != SPI_IMU_INTERNAL_RX_INT_ENABLED) */
  81:Generated_Source\PSoC5/SPI_IMU.c **** 
  82:Generated_Source\PSoC5/SPI_IMU.c ****     /* Clear any stray data from the RX and TX FIFO */
  83:Generated_Source\PSoC5/SPI_IMU.c ****     SPI_IMU_ClearFIFO();
  84:Generated_Source\PSoC5/SPI_IMU.c **** 
  85:Generated_Source\PSoC5/SPI_IMU.c ****     #if(SPI_IMU_RX_SOFTWARE_BUF_ENABLED)
  86:Generated_Source\PSoC5/SPI_IMU.c ****         SPI_IMU_rxBufferFull  = 0u;
  87:Generated_Source\PSoC5/SPI_IMU.c ****         SPI_IMU_rxBufferRead  = 0u;
ARM GAS  C:\Users\mgnocco\AppData\Local\Temp\ccn1tU5b.s 			page 3


  88:Generated_Source\PSoC5/SPI_IMU.c ****         SPI_IMU_rxBufferWrite = 0u;
  89:Generated_Source\PSoC5/SPI_IMU.c ****     #endif /* (SPI_IMU_RX_SOFTWARE_BUF_ENABLED) */
  90:Generated_Source\PSoC5/SPI_IMU.c **** 
  91:Generated_Source\PSoC5/SPI_IMU.c ****     #if(SPI_IMU_TX_SOFTWARE_BUF_ENABLED)
  92:Generated_Source\PSoC5/SPI_IMU.c ****         SPI_IMU_txBufferFull  = 0u;
  93:Generated_Source\PSoC5/SPI_IMU.c ****         SPI_IMU_txBufferRead  = 0u;
  94:Generated_Source\PSoC5/SPI_IMU.c ****         SPI_IMU_txBufferWrite = 0u;
  95:Generated_Source\PSoC5/SPI_IMU.c ****     #endif /* (SPI_IMU_TX_SOFTWARE_BUF_ENABLED) */
  96:Generated_Source\PSoC5/SPI_IMU.c **** 
  97:Generated_Source\PSoC5/SPI_IMU.c ****     (void) SPI_IMU_ReadTxStatus(); /* Clear Tx status and swStatusTx */
  98:Generated_Source\PSoC5/SPI_IMU.c ****     (void) SPI_IMU_ReadRxStatus(); /* Clear Rx status and swStatusRx */
  99:Generated_Source\PSoC5/SPI_IMU.c **** 
 100:Generated_Source\PSoC5/SPI_IMU.c ****     /* Configure TX and RX interrupt mask */
 101:Generated_Source\PSoC5/SPI_IMU.c ****     SPI_IMU_TX_STATUS_MASK_REG = SPI_IMU_TX_INIT_INTERRUPTS_MASK;
 102:Generated_Source\PSoC5/SPI_IMU.c ****     SPI_IMU_RX_STATUS_MASK_REG = SPI_IMU_RX_INIT_INTERRUPTS_MASK;
 103:Generated_Source\PSoC5/SPI_IMU.c **** }
 104:Generated_Source\PSoC5/SPI_IMU.c **** 
 105:Generated_Source\PSoC5/SPI_IMU.c **** 
 106:Generated_Source\PSoC5/SPI_IMU.c **** /*******************************************************************************
 107:Generated_Source\PSoC5/SPI_IMU.c **** * Function Name: SPI_IMU_Enable
 108:Generated_Source\PSoC5/SPI_IMU.c **** ********************************************************************************
 109:Generated_Source\PSoC5/SPI_IMU.c **** *
 110:Generated_Source\PSoC5/SPI_IMU.c **** * Summary:
 111:Generated_Source\PSoC5/SPI_IMU.c **** *  Enable SPIM component.
 112:Generated_Source\PSoC5/SPI_IMU.c **** *
 113:Generated_Source\PSoC5/SPI_IMU.c **** * Parameters:
 114:Generated_Source\PSoC5/SPI_IMU.c **** *  None.
 115:Generated_Source\PSoC5/SPI_IMU.c **** *
 116:Generated_Source\PSoC5/SPI_IMU.c **** * Return:
 117:Generated_Source\PSoC5/SPI_IMU.c **** *  None.
 118:Generated_Source\PSoC5/SPI_IMU.c **** *
 119:Generated_Source\PSoC5/SPI_IMU.c **** *******************************************************************************/
 120:Generated_Source\PSoC5/SPI_IMU.c **** void SPI_IMU_Enable(void) 
 121:Generated_Source\PSoC5/SPI_IMU.c **** {
  28              		.loc 1 121 0
  29              		.cfi_startproc
  30              		@ args = 0, pretend = 0, frame = 0
  31              		@ frame_needed = 0, uses_anonymous_args = 0
  32 0000 08B5     		push	{r3, lr}
  33              		.cfi_def_cfa_offset 8
  34              		.cfi_offset 3, -8
  35              		.cfi_offset 14, -4
 122:Generated_Source\PSoC5/SPI_IMU.c ****     uint8 enableInterrupts;
 123:Generated_Source\PSoC5/SPI_IMU.c **** 
 124:Generated_Source\PSoC5/SPI_IMU.c ****     enableInterrupts = CyEnterCriticalSection();
  36              		.loc 1 124 0
  37 0002 FFF7FEFF 		bl	CyEnterCriticalSection
  38              	.LVL0:
 125:Generated_Source\PSoC5/SPI_IMU.c ****     SPI_IMU_COUNTER_CONTROL_REG |= SPI_IMU_CNTR_ENABLE;
  39              		.loc 1 125 0
  40 0006 0A4A     		ldr	r2, .L2
  41 0008 1378     		ldrb	r3, [r2]	@ zero_extendqisi2
 126:Generated_Source\PSoC5/SPI_IMU.c ****     SPI_IMU_TX_STATUS_ACTL_REG  |= SPI_IMU_INT_ENABLE;
 127:Generated_Source\PSoC5/SPI_IMU.c ****     SPI_IMU_RX_STATUS_ACTL_REG  |= SPI_IMU_INT_ENABLE;
  42              		.loc 1 127 0
  43 000a 033A     		subs	r2, r2, #3
 125:Generated_Source\PSoC5/SPI_IMU.c ****     SPI_IMU_COUNTER_CONTROL_REG |= SPI_IMU_CNTR_ENABLE;
ARM GAS  C:\Users\mgnocco\AppData\Local\Temp\ccn1tU5b.s 			page 4


  44              		.loc 1 125 0
  45 000c 43F02003 		orr	r3, r3, #32
  46 0010 D370     		strb	r3, [r2, #3]
 126:Generated_Source\PSoC5/SPI_IMU.c ****     SPI_IMU_TX_STATUS_ACTL_REG  |= SPI_IMU_INT_ENABLE;
  47              		.loc 1 126 0
  48 0012 92F80331 		ldrb	r3, [r2, #259]	@ zero_extendqisi2
  49 0016 43F01003 		orr	r3, r3, #16
  50 001a 82F80331 		strb	r3, [r2, #259]
  51              		.loc 1 127 0
  52 001e 1378     		ldrb	r3, [r2]	@ zero_extendqisi2
  53 0020 43F01003 		orr	r3, r3, #16
  54 0024 1370     		strb	r3, [r2]
 128:Generated_Source\PSoC5/SPI_IMU.c ****     CyExitCriticalSection(enableInterrupts);
 129:Generated_Source\PSoC5/SPI_IMU.c **** 
 130:Generated_Source\PSoC5/SPI_IMU.c ****     #if(0u != SPI_IMU_INTERNAL_CLOCK)
 131:Generated_Source\PSoC5/SPI_IMU.c ****         SPI_IMU_IntClock_Enable();
 132:Generated_Source\PSoC5/SPI_IMU.c ****     #endif /* (0u != SPI_IMU_INTERNAL_CLOCK) */
 133:Generated_Source\PSoC5/SPI_IMU.c **** 
 134:Generated_Source\PSoC5/SPI_IMU.c ****     SPI_IMU_EnableTxInt();
 135:Generated_Source\PSoC5/SPI_IMU.c ****     SPI_IMU_EnableRxInt();
 136:Generated_Source\PSoC5/SPI_IMU.c **** }
  55              		.loc 1 136 0
  56 0026 BDE80840 		pop	{r3, lr}
  57              		.cfi_restore 14
  58              		.cfi_restore 3
  59              		.cfi_def_cfa_offset 0
 128:Generated_Source\PSoC5/SPI_IMU.c ****     CyExitCriticalSection(enableInterrupts);
  60              		.loc 1 128 0
  61 002a FFF7FEBF 		b	CyExitCriticalSection
  62              	.LVL1:
  63              	.L3:
  64 002e 00BF     		.align	2
  65              	.L2:
  66 0030 97640040 		.word	1073767575
  67              		.cfi_endproc
  68              	.LFE1:
  69              		.size	SPI_IMU_Enable, .-SPI_IMU_Enable
  70              		.section	.text.SPI_IMU_Stop,"ax",%progbits
  71              		.align	1
  72              		.global	SPI_IMU_Stop
  73              		.thumb
  74              		.thumb_func
  75              		.type	SPI_IMU_Stop, %function
  76              	SPI_IMU_Stop:
  77              	.LFB3:
 137:Generated_Source\PSoC5/SPI_IMU.c **** 
 138:Generated_Source\PSoC5/SPI_IMU.c **** 
 139:Generated_Source\PSoC5/SPI_IMU.c **** /*******************************************************************************
 140:Generated_Source\PSoC5/SPI_IMU.c **** * Function Name: SPI_IMU_Start
 141:Generated_Source\PSoC5/SPI_IMU.c **** ********************************************************************************
 142:Generated_Source\PSoC5/SPI_IMU.c **** *
 143:Generated_Source\PSoC5/SPI_IMU.c **** * Summary:
 144:Generated_Source\PSoC5/SPI_IMU.c **** *  Initialize and Enable the SPI Master component.
 145:Generated_Source\PSoC5/SPI_IMU.c **** *
 146:Generated_Source\PSoC5/SPI_IMU.c **** * Parameters:
 147:Generated_Source\PSoC5/SPI_IMU.c **** *  None.
 148:Generated_Source\PSoC5/SPI_IMU.c **** *
ARM GAS  C:\Users\mgnocco\AppData\Local\Temp\ccn1tU5b.s 			page 5


 149:Generated_Source\PSoC5/SPI_IMU.c **** * Return:
 150:Generated_Source\PSoC5/SPI_IMU.c **** *  None.
 151:Generated_Source\PSoC5/SPI_IMU.c **** *
 152:Generated_Source\PSoC5/SPI_IMU.c **** * Global variables:
 153:Generated_Source\PSoC5/SPI_IMU.c **** *  SPI_IMU_initVar - used to check initial configuration, modified on
 154:Generated_Source\PSoC5/SPI_IMU.c **** *  first function call.
 155:Generated_Source\PSoC5/SPI_IMU.c **** *
 156:Generated_Source\PSoC5/SPI_IMU.c **** * Theory:
 157:Generated_Source\PSoC5/SPI_IMU.c **** *  Enable the clock input to enable operation.
 158:Generated_Source\PSoC5/SPI_IMU.c **** *
 159:Generated_Source\PSoC5/SPI_IMU.c **** * Reentrant:
 160:Generated_Source\PSoC5/SPI_IMU.c **** *  No.
 161:Generated_Source\PSoC5/SPI_IMU.c **** *
 162:Generated_Source\PSoC5/SPI_IMU.c **** *******************************************************************************/
 163:Generated_Source\PSoC5/SPI_IMU.c **** void SPI_IMU_Start(void) 
 164:Generated_Source\PSoC5/SPI_IMU.c **** {
 165:Generated_Source\PSoC5/SPI_IMU.c ****     if(0u == SPI_IMU_initVar)
 166:Generated_Source\PSoC5/SPI_IMU.c ****     {
 167:Generated_Source\PSoC5/SPI_IMU.c ****         SPI_IMU_Init();
 168:Generated_Source\PSoC5/SPI_IMU.c ****         SPI_IMU_initVar = 1u;
 169:Generated_Source\PSoC5/SPI_IMU.c ****     }
 170:Generated_Source\PSoC5/SPI_IMU.c **** 
 171:Generated_Source\PSoC5/SPI_IMU.c ****     SPI_IMU_Enable();
 172:Generated_Source\PSoC5/SPI_IMU.c **** }
 173:Generated_Source\PSoC5/SPI_IMU.c **** 
 174:Generated_Source\PSoC5/SPI_IMU.c **** 
 175:Generated_Source\PSoC5/SPI_IMU.c **** /*******************************************************************************
 176:Generated_Source\PSoC5/SPI_IMU.c **** * Function Name: SPI_IMU_Stop
 177:Generated_Source\PSoC5/SPI_IMU.c **** ********************************************************************************
 178:Generated_Source\PSoC5/SPI_IMU.c **** *
 179:Generated_Source\PSoC5/SPI_IMU.c **** * Summary:
 180:Generated_Source\PSoC5/SPI_IMU.c **** *  Disable the SPI Master component.
 181:Generated_Source\PSoC5/SPI_IMU.c **** *
 182:Generated_Source\PSoC5/SPI_IMU.c **** * Parameters:
 183:Generated_Source\PSoC5/SPI_IMU.c **** *  None.
 184:Generated_Source\PSoC5/SPI_IMU.c **** *
 185:Generated_Source\PSoC5/SPI_IMU.c **** * Return:
 186:Generated_Source\PSoC5/SPI_IMU.c **** *  None.
 187:Generated_Source\PSoC5/SPI_IMU.c **** *
 188:Generated_Source\PSoC5/SPI_IMU.c **** * Theory:
 189:Generated_Source\PSoC5/SPI_IMU.c **** *  Disable the clock input to enable operation.
 190:Generated_Source\PSoC5/SPI_IMU.c **** *
 191:Generated_Source\PSoC5/SPI_IMU.c **** *******************************************************************************/
 192:Generated_Source\PSoC5/SPI_IMU.c **** void SPI_IMU_Stop(void) 
 193:Generated_Source\PSoC5/SPI_IMU.c **** {
  78              		.loc 1 193 0
  79              		.cfi_startproc
  80              		@ args = 0, pretend = 0, frame = 0
  81              		@ frame_needed = 0, uses_anonymous_args = 0
  82 0000 08B5     		push	{r3, lr}
  83              		.cfi_def_cfa_offset 8
  84              		.cfi_offset 3, -8
  85              		.cfi_offset 14, -4
 194:Generated_Source\PSoC5/SPI_IMU.c ****     uint8 enableInterrupts;
 195:Generated_Source\PSoC5/SPI_IMU.c **** 
 196:Generated_Source\PSoC5/SPI_IMU.c ****     enableInterrupts = CyEnterCriticalSection();
  86              		.loc 1 196 0
ARM GAS  C:\Users\mgnocco\AppData\Local\Temp\ccn1tU5b.s 			page 6


  87 0002 FFF7FEFF 		bl	CyEnterCriticalSection
  88              	.LVL2:
 197:Generated_Source\PSoC5/SPI_IMU.c ****     SPI_IMU_TX_STATUS_ACTL_REG &= ((uint8) ~SPI_IMU_INT_ENABLE);
  89              		.loc 1 197 0
  90 0006 084A     		ldr	r2, .L5
  91 0008 1378     		ldrb	r3, [r2]	@ zero_extendqisi2
  92 000a 03F0EF03 		and	r3, r3, #239
  93 000e 1370     		strb	r3, [r2]
 198:Generated_Source\PSoC5/SPI_IMU.c ****     SPI_IMU_RX_STATUS_ACTL_REG &= ((uint8) ~SPI_IMU_INT_ENABLE);
  94              		.loc 1 198 0
  95 0010 6FF48173 		mvn	r3, #258
  96 0014 1A44     		add	r2, r2, r3
  97 0016 1378     		ldrb	r3, [r2]	@ zero_extendqisi2
  98 0018 03F0EF03 		and	r3, r3, #239
  99 001c 1370     		strb	r3, [r2]
 199:Generated_Source\PSoC5/SPI_IMU.c ****     CyExitCriticalSection(enableInterrupts);
 200:Generated_Source\PSoC5/SPI_IMU.c **** 
 201:Generated_Source\PSoC5/SPI_IMU.c ****     #if(0u != SPI_IMU_INTERNAL_CLOCK)
 202:Generated_Source\PSoC5/SPI_IMU.c ****         SPI_IMU_IntClock_Disable();
 203:Generated_Source\PSoC5/SPI_IMU.c ****     #endif /* (0u != SPI_IMU_INTERNAL_CLOCK) */
 204:Generated_Source\PSoC5/SPI_IMU.c **** 
 205:Generated_Source\PSoC5/SPI_IMU.c ****     SPI_IMU_DisableTxInt();
 206:Generated_Source\PSoC5/SPI_IMU.c ****     SPI_IMU_DisableRxInt();
 207:Generated_Source\PSoC5/SPI_IMU.c **** }
 100              		.loc 1 207 0
 101 001e BDE80840 		pop	{r3, lr}
 102              		.cfi_restore 14
 103              		.cfi_restore 3
 104              		.cfi_def_cfa_offset 0
 199:Generated_Source\PSoC5/SPI_IMU.c ****     CyExitCriticalSection(enableInterrupts);
 105              		.loc 1 199 0
 106 0022 FFF7FEBF 		b	CyExitCriticalSection
 107              	.LVL3:
 108              	.L6:
 109 0026 00BF     		.align	2
 110              	.L5:
 111 0028 97650040 		.word	1073767831
 112              		.cfi_endproc
 113              	.LFE3:
 114              		.size	SPI_IMU_Stop, .-SPI_IMU_Stop
 115              		.section	.text.SPI_IMU_EnableTxInt,"ax",%progbits
 116              		.align	1
 117              		.global	SPI_IMU_EnableTxInt
 118              		.thumb
 119              		.thumb_func
 120              		.type	SPI_IMU_EnableTxInt, %function
 121              	SPI_IMU_EnableTxInt:
 122              	.LFB33:
 123              		.cfi_startproc
 124              		@ args = 0, pretend = 0, frame = 0
 125              		@ frame_needed = 0, uses_anonymous_args = 0
 126              		@ link register save eliminated.
 127 0000 7047     		bx	lr
 128              		.cfi_endproc
 129              	.LFE33:
 130              		.size	SPI_IMU_EnableTxInt, .-SPI_IMU_EnableTxInt
 131              		.section	.text.SPI_IMU_EnableRxInt,"ax",%progbits
ARM GAS  C:\Users\mgnocco\AppData\Local\Temp\ccn1tU5b.s 			page 7


 132              		.align	1
 133              		.global	SPI_IMU_EnableRxInt
 134              		.thumb
 135              		.thumb_func
 136              		.type	SPI_IMU_EnableRxInt, %function
 137              	SPI_IMU_EnableRxInt:
 138              	.LFB31:
 139              		.cfi_startproc
 140              		@ args = 0, pretend = 0, frame = 0
 141              		@ frame_needed = 0, uses_anonymous_args = 0
 142              		@ link register save eliminated.
 143 0000 7047     		bx	lr
 144              		.cfi_endproc
 145              	.LFE31:
 146              		.size	SPI_IMU_EnableRxInt, .-SPI_IMU_EnableRxInt
 147              		.section	.text.SPI_IMU_DisableTxInt,"ax",%progbits
 148              		.align	1
 149              		.global	SPI_IMU_DisableTxInt
 150              		.thumb
 151              		.thumb_func
 152              		.type	SPI_IMU_DisableTxInt, %function
 153              	SPI_IMU_DisableTxInt:
 154              	.LFB29:
 155              		.cfi_startproc
 156              		@ args = 0, pretend = 0, frame = 0
 157              		@ frame_needed = 0, uses_anonymous_args = 0
 158              		@ link register save eliminated.
 159 0000 7047     		bx	lr
 160              		.cfi_endproc
 161              	.LFE29:
 162              		.size	SPI_IMU_DisableTxInt, .-SPI_IMU_DisableTxInt
 163              		.section	.text.SPI_IMU_DisableRxInt,"ax",%progbits
 164              		.align	1
 165              		.global	SPI_IMU_DisableRxInt
 166              		.thumb
 167              		.thumb_func
 168              		.type	SPI_IMU_DisableRxInt, %function
 169              	SPI_IMU_DisableRxInt:
 170              	.LFB27:
 171              		.cfi_startproc
 172              		@ args = 0, pretend = 0, frame = 0
 173              		@ frame_needed = 0, uses_anonymous_args = 0
 174              		@ link register save eliminated.
 175 0000 7047     		bx	lr
 176              		.cfi_endproc
 177              	.LFE27:
 178              		.size	SPI_IMU_DisableRxInt, .-SPI_IMU_DisableRxInt
 179              		.section	.text.SPI_IMU_SetTxInterruptMode,"ax",%progbits
 180              		.align	1
 181              		.global	SPI_IMU_SetTxInterruptMode
 182              		.thumb
 183              		.thumb_func
 184              		.type	SPI_IMU_SetTxInterruptMode, %function
 185              	SPI_IMU_SetTxInterruptMode:
 186              	.LFB8:
 208:Generated_Source\PSoC5/SPI_IMU.c **** 
 209:Generated_Source\PSoC5/SPI_IMU.c **** 
ARM GAS  C:\Users\mgnocco\AppData\Local\Temp\ccn1tU5b.s 			page 8


 210:Generated_Source\PSoC5/SPI_IMU.c **** /*******************************************************************************
 211:Generated_Source\PSoC5/SPI_IMU.c **** * Function Name: SPI_IMU_EnableTxInt
 212:Generated_Source\PSoC5/SPI_IMU.c **** ********************************************************************************
 213:Generated_Source\PSoC5/SPI_IMU.c **** *
 214:Generated_Source\PSoC5/SPI_IMU.c **** * Summary:
 215:Generated_Source\PSoC5/SPI_IMU.c **** *  Enable internal Tx interrupt generation.
 216:Generated_Source\PSoC5/SPI_IMU.c **** *
 217:Generated_Source\PSoC5/SPI_IMU.c **** * Parameters:
 218:Generated_Source\PSoC5/SPI_IMU.c **** *  None.
 219:Generated_Source\PSoC5/SPI_IMU.c **** *
 220:Generated_Source\PSoC5/SPI_IMU.c **** * Return:
 221:Generated_Source\PSoC5/SPI_IMU.c **** *  None.
 222:Generated_Source\PSoC5/SPI_IMU.c **** *
 223:Generated_Source\PSoC5/SPI_IMU.c **** * Theory:
 224:Generated_Source\PSoC5/SPI_IMU.c **** *  Enable the internal Tx interrupt output -or- the interrupt component itself.
 225:Generated_Source\PSoC5/SPI_IMU.c **** *
 226:Generated_Source\PSoC5/SPI_IMU.c **** *******************************************************************************/
 227:Generated_Source\PSoC5/SPI_IMU.c **** void SPI_IMU_EnableTxInt(void) 
 228:Generated_Source\PSoC5/SPI_IMU.c **** {
 229:Generated_Source\PSoC5/SPI_IMU.c ****     #if(0u != SPI_IMU_INTERNAL_TX_INT_ENABLED)
 230:Generated_Source\PSoC5/SPI_IMU.c ****         CyIntEnable(SPI_IMU_TX_ISR_NUMBER);
 231:Generated_Source\PSoC5/SPI_IMU.c ****     #endif /* (0u != SPI_IMU_INTERNAL_TX_INT_ENABLED) */
 232:Generated_Source\PSoC5/SPI_IMU.c **** }
 233:Generated_Source\PSoC5/SPI_IMU.c **** 
 234:Generated_Source\PSoC5/SPI_IMU.c **** 
 235:Generated_Source\PSoC5/SPI_IMU.c **** /*******************************************************************************
 236:Generated_Source\PSoC5/SPI_IMU.c **** * Function Name: SPI_IMU_EnableRxInt
 237:Generated_Source\PSoC5/SPI_IMU.c **** ********************************************************************************
 238:Generated_Source\PSoC5/SPI_IMU.c **** *
 239:Generated_Source\PSoC5/SPI_IMU.c **** * Summary:
 240:Generated_Source\PSoC5/SPI_IMU.c **** *  Enable internal Rx interrupt generation.
 241:Generated_Source\PSoC5/SPI_IMU.c **** *
 242:Generated_Source\PSoC5/SPI_IMU.c **** * Parameters:
 243:Generated_Source\PSoC5/SPI_IMU.c **** *  None.
 244:Generated_Source\PSoC5/SPI_IMU.c **** *
 245:Generated_Source\PSoC5/SPI_IMU.c **** * Return:
 246:Generated_Source\PSoC5/SPI_IMU.c **** *  None.
 247:Generated_Source\PSoC5/SPI_IMU.c **** *
 248:Generated_Source\PSoC5/SPI_IMU.c **** * Theory:
 249:Generated_Source\PSoC5/SPI_IMU.c **** *  Enable the internal Rx interrupt output -or- the interrupt component itself.
 250:Generated_Source\PSoC5/SPI_IMU.c **** *
 251:Generated_Source\PSoC5/SPI_IMU.c **** *******************************************************************************/
 252:Generated_Source\PSoC5/SPI_IMU.c **** void SPI_IMU_EnableRxInt(void) 
 253:Generated_Source\PSoC5/SPI_IMU.c **** {
 254:Generated_Source\PSoC5/SPI_IMU.c ****     #if(0u != SPI_IMU_INTERNAL_RX_INT_ENABLED)
 255:Generated_Source\PSoC5/SPI_IMU.c ****         CyIntEnable(SPI_IMU_RX_ISR_NUMBER);
 256:Generated_Source\PSoC5/SPI_IMU.c ****     #endif /* (0u != SPI_IMU_INTERNAL_RX_INT_ENABLED) */
 257:Generated_Source\PSoC5/SPI_IMU.c **** }
 258:Generated_Source\PSoC5/SPI_IMU.c **** 
 259:Generated_Source\PSoC5/SPI_IMU.c **** 
 260:Generated_Source\PSoC5/SPI_IMU.c **** /*******************************************************************************
 261:Generated_Source\PSoC5/SPI_IMU.c **** * Function Name: SPI_IMU_DisableTxInt
 262:Generated_Source\PSoC5/SPI_IMU.c **** ********************************************************************************
 263:Generated_Source\PSoC5/SPI_IMU.c **** *
 264:Generated_Source\PSoC5/SPI_IMU.c **** * Summary:
 265:Generated_Source\PSoC5/SPI_IMU.c **** *  Disable internal Tx interrupt generation.
 266:Generated_Source\PSoC5/SPI_IMU.c **** *
ARM GAS  C:\Users\mgnocco\AppData\Local\Temp\ccn1tU5b.s 			page 9


 267:Generated_Source\PSoC5/SPI_IMU.c **** * Parameters:
 268:Generated_Source\PSoC5/SPI_IMU.c **** *  None.
 269:Generated_Source\PSoC5/SPI_IMU.c **** *
 270:Generated_Source\PSoC5/SPI_IMU.c **** * Return:
 271:Generated_Source\PSoC5/SPI_IMU.c **** *  None.
 272:Generated_Source\PSoC5/SPI_IMU.c **** *
 273:Generated_Source\PSoC5/SPI_IMU.c **** * Theory:
 274:Generated_Source\PSoC5/SPI_IMU.c **** *  Disable the internal Tx interrupt output -or- the interrupt component itself.
 275:Generated_Source\PSoC5/SPI_IMU.c **** *
 276:Generated_Source\PSoC5/SPI_IMU.c **** *******************************************************************************/
 277:Generated_Source\PSoC5/SPI_IMU.c **** void SPI_IMU_DisableTxInt(void) 
 278:Generated_Source\PSoC5/SPI_IMU.c **** {
 279:Generated_Source\PSoC5/SPI_IMU.c ****     #if(0u != SPI_IMU_INTERNAL_TX_INT_ENABLED)
 280:Generated_Source\PSoC5/SPI_IMU.c ****         CyIntDisable(SPI_IMU_TX_ISR_NUMBER);
 281:Generated_Source\PSoC5/SPI_IMU.c ****     #endif /* (0u != SPI_IMU_INTERNAL_TX_INT_ENABLED) */
 282:Generated_Source\PSoC5/SPI_IMU.c **** }
 283:Generated_Source\PSoC5/SPI_IMU.c **** 
 284:Generated_Source\PSoC5/SPI_IMU.c **** 
 285:Generated_Source\PSoC5/SPI_IMU.c **** /*******************************************************************************
 286:Generated_Source\PSoC5/SPI_IMU.c **** * Function Name: SPI_IMU_DisableRxInt
 287:Generated_Source\PSoC5/SPI_IMU.c **** ********************************************************************************
 288:Generated_Source\PSoC5/SPI_IMU.c **** *
 289:Generated_Source\PSoC5/SPI_IMU.c **** * Summary:
 290:Generated_Source\PSoC5/SPI_IMU.c **** *  Disable internal Rx interrupt generation.
 291:Generated_Source\PSoC5/SPI_IMU.c **** *
 292:Generated_Source\PSoC5/SPI_IMU.c **** * Parameters:
 293:Generated_Source\PSoC5/SPI_IMU.c **** *  None.
 294:Generated_Source\PSoC5/SPI_IMU.c **** *
 295:Generated_Source\PSoC5/SPI_IMU.c **** * Return:
 296:Generated_Source\PSoC5/SPI_IMU.c **** *  None.
 297:Generated_Source\PSoC5/SPI_IMU.c **** *
 298:Generated_Source\PSoC5/SPI_IMU.c **** * Theory:
 299:Generated_Source\PSoC5/SPI_IMU.c **** *  Disable the internal Rx interrupt output -or- the interrupt component itself.
 300:Generated_Source\PSoC5/SPI_IMU.c **** *
 301:Generated_Source\PSoC5/SPI_IMU.c **** *******************************************************************************/
 302:Generated_Source\PSoC5/SPI_IMU.c **** void SPI_IMU_DisableRxInt(void) 
 303:Generated_Source\PSoC5/SPI_IMU.c **** {
 304:Generated_Source\PSoC5/SPI_IMU.c ****     #if(0u != SPI_IMU_INTERNAL_RX_INT_ENABLED)
 305:Generated_Source\PSoC5/SPI_IMU.c ****         CyIntDisable(SPI_IMU_RX_ISR_NUMBER);
 306:Generated_Source\PSoC5/SPI_IMU.c ****     #endif /* (0u != SPI_IMU_INTERNAL_RX_INT_ENABLED) */
 307:Generated_Source\PSoC5/SPI_IMU.c **** }
 308:Generated_Source\PSoC5/SPI_IMU.c **** 
 309:Generated_Source\PSoC5/SPI_IMU.c **** 
 310:Generated_Source\PSoC5/SPI_IMU.c **** /*******************************************************************************
 311:Generated_Source\PSoC5/SPI_IMU.c **** * Function Name: SPI_IMU_SetTxInterruptMode
 312:Generated_Source\PSoC5/SPI_IMU.c **** ********************************************************************************
 313:Generated_Source\PSoC5/SPI_IMU.c **** *
 314:Generated_Source\PSoC5/SPI_IMU.c **** * Summary:
 315:Generated_Source\PSoC5/SPI_IMU.c **** *  Configure which status bits trigger an interrupt event.
 316:Generated_Source\PSoC5/SPI_IMU.c **** *
 317:Generated_Source\PSoC5/SPI_IMU.c **** * Parameters:
 318:Generated_Source\PSoC5/SPI_IMU.c **** *  intSrc: An or'd combination of the desired status bit masks (defined in the
 319:Generated_Source\PSoC5/SPI_IMU.c **** *  header file).
 320:Generated_Source\PSoC5/SPI_IMU.c **** *
 321:Generated_Source\PSoC5/SPI_IMU.c **** * Return:
 322:Generated_Source\PSoC5/SPI_IMU.c **** *  None.
 323:Generated_Source\PSoC5/SPI_IMU.c **** *
ARM GAS  C:\Users\mgnocco\AppData\Local\Temp\ccn1tU5b.s 			page 10


 324:Generated_Source\PSoC5/SPI_IMU.c **** * Theory:
 325:Generated_Source\PSoC5/SPI_IMU.c **** *  Enables the output of specific status bits to the interrupt controller.
 326:Generated_Source\PSoC5/SPI_IMU.c **** *
 327:Generated_Source\PSoC5/SPI_IMU.c **** *******************************************************************************/
 328:Generated_Source\PSoC5/SPI_IMU.c **** void SPI_IMU_SetTxInterruptMode(uint8 intSrc) 
 329:Generated_Source\PSoC5/SPI_IMU.c **** {
 187              		.loc 1 329 0
 188              		.cfi_startproc
 189              		@ args = 0, pretend = 0, frame = 0
 190              		@ frame_needed = 0, uses_anonymous_args = 0
 191              		@ link register save eliminated.
 192              	.LVL4:
 330:Generated_Source\PSoC5/SPI_IMU.c ****     SPI_IMU_TX_STATUS_MASK_REG = intSrc;
 193              		.loc 1 330 0
 194 0000 014B     		ldr	r3, .L12
 195 0002 1870     		strb	r0, [r3]
 196 0004 7047     		bx	lr
 197              	.L13:
 198 0006 00BF     		.align	2
 199              	.L12:
 200 0008 87650040 		.word	1073767815
 201              		.cfi_endproc
 202              	.LFE8:
 203              		.size	SPI_IMU_SetTxInterruptMode, .-SPI_IMU_SetTxInterruptMode
 204              		.section	.text.SPI_IMU_SetRxInterruptMode,"ax",%progbits
 205              		.align	1
 206              		.global	SPI_IMU_SetRxInterruptMode
 207              		.thumb
 208              		.thumb_func
 209              		.type	SPI_IMU_SetRxInterruptMode, %function
 210              	SPI_IMU_SetRxInterruptMode:
 211              	.LFB9:
 331:Generated_Source\PSoC5/SPI_IMU.c **** }
 332:Generated_Source\PSoC5/SPI_IMU.c **** 
 333:Generated_Source\PSoC5/SPI_IMU.c **** 
 334:Generated_Source\PSoC5/SPI_IMU.c **** /*******************************************************************************
 335:Generated_Source\PSoC5/SPI_IMU.c **** * Function Name: SPI_IMU_SetRxInterruptMode
 336:Generated_Source\PSoC5/SPI_IMU.c **** ********************************************************************************
 337:Generated_Source\PSoC5/SPI_IMU.c **** *
 338:Generated_Source\PSoC5/SPI_IMU.c **** * Summary:
 339:Generated_Source\PSoC5/SPI_IMU.c **** *  Configure which status bits trigger an interrupt event.
 340:Generated_Source\PSoC5/SPI_IMU.c **** *
 341:Generated_Source\PSoC5/SPI_IMU.c **** * Parameters:
 342:Generated_Source\PSoC5/SPI_IMU.c **** *  intSrc: An or'd combination of the desired status bit masks (defined in the
 343:Generated_Source\PSoC5/SPI_IMU.c **** *  header file).
 344:Generated_Source\PSoC5/SPI_IMU.c **** *
 345:Generated_Source\PSoC5/SPI_IMU.c **** * Return:
 346:Generated_Source\PSoC5/SPI_IMU.c **** *  None.
 347:Generated_Source\PSoC5/SPI_IMU.c **** *
 348:Generated_Source\PSoC5/SPI_IMU.c **** * Theory:
 349:Generated_Source\PSoC5/SPI_IMU.c **** *  Enables the output of specific status bits to the interrupt controller.
 350:Generated_Source\PSoC5/SPI_IMU.c **** *
 351:Generated_Source\PSoC5/SPI_IMU.c **** *******************************************************************************/
 352:Generated_Source\PSoC5/SPI_IMU.c **** void SPI_IMU_SetRxInterruptMode(uint8 intSrc) 
 353:Generated_Source\PSoC5/SPI_IMU.c **** {
 212              		.loc 1 353 0
 213              		.cfi_startproc
ARM GAS  C:\Users\mgnocco\AppData\Local\Temp\ccn1tU5b.s 			page 11


 214              		@ args = 0, pretend = 0, frame = 0
 215              		@ frame_needed = 0, uses_anonymous_args = 0
 216              		@ link register save eliminated.
 217              	.LVL5:
 354:Generated_Source\PSoC5/SPI_IMU.c ****     SPI_IMU_RX_STATUS_MASK_REG  = intSrc;
 218              		.loc 1 354 0
 219 0000 014B     		ldr	r3, .L15
 220 0002 1870     		strb	r0, [r3]
 221 0004 7047     		bx	lr
 222              	.L16:
 223 0006 00BF     		.align	2
 224              	.L15:
 225 0008 84640040 		.word	1073767556
 226              		.cfi_endproc
 227              	.LFE9:
 228              		.size	SPI_IMU_SetRxInterruptMode, .-SPI_IMU_SetRxInterruptMode
 229              		.section	.text.SPI_IMU_ReadTxStatus,"ax",%progbits
 230              		.align	1
 231              		.global	SPI_IMU_ReadTxStatus
 232              		.thumb
 233              		.thumb_func
 234              		.type	SPI_IMU_ReadTxStatus, %function
 235              	SPI_IMU_ReadTxStatus:
 236              	.LFB10:
 355:Generated_Source\PSoC5/SPI_IMU.c **** }
 356:Generated_Source\PSoC5/SPI_IMU.c **** 
 357:Generated_Source\PSoC5/SPI_IMU.c **** 
 358:Generated_Source\PSoC5/SPI_IMU.c **** /*******************************************************************************
 359:Generated_Source\PSoC5/SPI_IMU.c **** * Function Name: SPI_IMU_ReadTxStatus
 360:Generated_Source\PSoC5/SPI_IMU.c **** ********************************************************************************
 361:Generated_Source\PSoC5/SPI_IMU.c **** *
 362:Generated_Source\PSoC5/SPI_IMU.c **** * Summary:
 363:Generated_Source\PSoC5/SPI_IMU.c **** *  Read the Tx status register for the component.
 364:Generated_Source\PSoC5/SPI_IMU.c **** *
 365:Generated_Source\PSoC5/SPI_IMU.c **** * Parameters:
 366:Generated_Source\PSoC5/SPI_IMU.c **** *  None.
 367:Generated_Source\PSoC5/SPI_IMU.c **** *
 368:Generated_Source\PSoC5/SPI_IMU.c **** * Return:
 369:Generated_Source\PSoC5/SPI_IMU.c **** *  Contents of the Tx status register.
 370:Generated_Source\PSoC5/SPI_IMU.c **** *
 371:Generated_Source\PSoC5/SPI_IMU.c **** * Global variables:
 372:Generated_Source\PSoC5/SPI_IMU.c **** *  SPI_IMU_swStatusTx - used to store in software status register,
 373:Generated_Source\PSoC5/SPI_IMU.c **** *  modified every function call - resets to zero.
 374:Generated_Source\PSoC5/SPI_IMU.c **** *
 375:Generated_Source\PSoC5/SPI_IMU.c **** * Theory:
 376:Generated_Source\PSoC5/SPI_IMU.c **** *  Allows the user and the API to read the Tx status register for error
 377:Generated_Source\PSoC5/SPI_IMU.c **** *  detection and flow control.
 378:Generated_Source\PSoC5/SPI_IMU.c **** *
 379:Generated_Source\PSoC5/SPI_IMU.c **** * Side Effects:
 380:Generated_Source\PSoC5/SPI_IMU.c **** *  Clear Tx status register of the component.
 381:Generated_Source\PSoC5/SPI_IMU.c **** *
 382:Generated_Source\PSoC5/SPI_IMU.c **** * Reentrant:
 383:Generated_Source\PSoC5/SPI_IMU.c **** *  No.
 384:Generated_Source\PSoC5/SPI_IMU.c **** *
 385:Generated_Source\PSoC5/SPI_IMU.c **** *******************************************************************************/
 386:Generated_Source\PSoC5/SPI_IMU.c **** uint8 SPI_IMU_ReadTxStatus(void) 
 387:Generated_Source\PSoC5/SPI_IMU.c **** {
ARM GAS  C:\Users\mgnocco\AppData\Local\Temp\ccn1tU5b.s 			page 12


 237              		.loc 1 387 0
 238              		.cfi_startproc
 239              		@ args = 0, pretend = 0, frame = 0
 240              		@ frame_needed = 0, uses_anonymous_args = 0
 241              		@ link register save eliminated.
 388:Generated_Source\PSoC5/SPI_IMU.c ****     uint8 tmpStatus;
 389:Generated_Source\PSoC5/SPI_IMU.c **** 
 390:Generated_Source\PSoC5/SPI_IMU.c ****     #if(SPI_IMU_TX_SOFTWARE_BUF_ENABLED)
 391:Generated_Source\PSoC5/SPI_IMU.c ****         /* Disable TX interrupt to protect global veriables */
 392:Generated_Source\PSoC5/SPI_IMU.c ****         SPI_IMU_DisableTxInt();
 393:Generated_Source\PSoC5/SPI_IMU.c **** 
 394:Generated_Source\PSoC5/SPI_IMU.c ****         tmpStatus = SPI_IMU_GET_STATUS_TX(SPI_IMU_swStatusTx);
 395:Generated_Source\PSoC5/SPI_IMU.c ****         SPI_IMU_swStatusTx = 0u;
 396:Generated_Source\PSoC5/SPI_IMU.c **** 
 397:Generated_Source\PSoC5/SPI_IMU.c ****         SPI_IMU_EnableTxInt();
 398:Generated_Source\PSoC5/SPI_IMU.c **** 
 399:Generated_Source\PSoC5/SPI_IMU.c ****     #else
 400:Generated_Source\PSoC5/SPI_IMU.c **** 
 401:Generated_Source\PSoC5/SPI_IMU.c ****         tmpStatus = SPI_IMU_TX_STATUS_REG;
 242              		.loc 1 401 0
 243 0000 014B     		ldr	r3, .L18
 244 0002 1878     		ldrb	r0, [r3]	@ zero_extendqisi2
 245              	.LVL6:
 402:Generated_Source\PSoC5/SPI_IMU.c **** 
 403:Generated_Source\PSoC5/SPI_IMU.c ****     #endif /* (SPI_IMU_TX_SOFTWARE_BUF_ENABLED) */
 404:Generated_Source\PSoC5/SPI_IMU.c **** 
 405:Generated_Source\PSoC5/SPI_IMU.c ****     return(tmpStatus);
 406:Generated_Source\PSoC5/SPI_IMU.c **** }
 246              		.loc 1 406 0
 247 0004 7047     		bx	lr
 248              	.L19:
 249 0006 00BF     		.align	2
 250              	.L18:
 251 0008 67650040 		.word	1073767783
 252              		.cfi_endproc
 253              	.LFE10:
 254              		.size	SPI_IMU_ReadTxStatus, .-SPI_IMU_ReadTxStatus
 255              		.section	.text.SPI_IMU_ReadRxStatus,"ax",%progbits
 256              		.align	1
 257              		.global	SPI_IMU_ReadRxStatus
 258              		.thumb
 259              		.thumb_func
 260              		.type	SPI_IMU_ReadRxStatus, %function
 261              	SPI_IMU_ReadRxStatus:
 262              	.LFB11:
 407:Generated_Source\PSoC5/SPI_IMU.c **** 
 408:Generated_Source\PSoC5/SPI_IMU.c **** 
 409:Generated_Source\PSoC5/SPI_IMU.c **** /*******************************************************************************
 410:Generated_Source\PSoC5/SPI_IMU.c **** * Function Name: SPI_IMU_ReadRxStatus
 411:Generated_Source\PSoC5/SPI_IMU.c **** ********************************************************************************
 412:Generated_Source\PSoC5/SPI_IMU.c **** *
 413:Generated_Source\PSoC5/SPI_IMU.c **** * Summary:
 414:Generated_Source\PSoC5/SPI_IMU.c **** *  Read the Rx status register for the component.
 415:Generated_Source\PSoC5/SPI_IMU.c **** *
 416:Generated_Source\PSoC5/SPI_IMU.c **** * Parameters:
 417:Generated_Source\PSoC5/SPI_IMU.c **** *  None.
 418:Generated_Source\PSoC5/SPI_IMU.c **** *
ARM GAS  C:\Users\mgnocco\AppData\Local\Temp\ccn1tU5b.s 			page 13


 419:Generated_Source\PSoC5/SPI_IMU.c **** * Return:
 420:Generated_Source\PSoC5/SPI_IMU.c **** *  Contents of the Rx status register.
 421:Generated_Source\PSoC5/SPI_IMU.c **** *
 422:Generated_Source\PSoC5/SPI_IMU.c **** * Global variables:
 423:Generated_Source\PSoC5/SPI_IMU.c **** *  SPI_IMU_swStatusRx - used to store in software Rx status register,
 424:Generated_Source\PSoC5/SPI_IMU.c **** *  modified every function call - resets to zero.
 425:Generated_Source\PSoC5/SPI_IMU.c **** *
 426:Generated_Source\PSoC5/SPI_IMU.c **** * Theory:
 427:Generated_Source\PSoC5/SPI_IMU.c **** *  Allows the user and the API to read the Rx status register for error
 428:Generated_Source\PSoC5/SPI_IMU.c **** *  detection and flow control.
 429:Generated_Source\PSoC5/SPI_IMU.c **** *
 430:Generated_Source\PSoC5/SPI_IMU.c **** * Side Effects:
 431:Generated_Source\PSoC5/SPI_IMU.c **** *  Clear Rx status register of the component.
 432:Generated_Source\PSoC5/SPI_IMU.c **** *
 433:Generated_Source\PSoC5/SPI_IMU.c **** * Reentrant:
 434:Generated_Source\PSoC5/SPI_IMU.c **** *  No.
 435:Generated_Source\PSoC5/SPI_IMU.c **** *
 436:Generated_Source\PSoC5/SPI_IMU.c **** *******************************************************************************/
 437:Generated_Source\PSoC5/SPI_IMU.c **** uint8 SPI_IMU_ReadRxStatus(void) 
 438:Generated_Source\PSoC5/SPI_IMU.c **** {
 263              		.loc 1 438 0
 264              		.cfi_startproc
 265              		@ args = 0, pretend = 0, frame = 0
 266              		@ frame_needed = 0, uses_anonymous_args = 0
 267              		@ link register save eliminated.
 439:Generated_Source\PSoC5/SPI_IMU.c ****     uint8 tmpStatus;
 440:Generated_Source\PSoC5/SPI_IMU.c **** 
 441:Generated_Source\PSoC5/SPI_IMU.c ****     #if(SPI_IMU_RX_SOFTWARE_BUF_ENABLED)
 442:Generated_Source\PSoC5/SPI_IMU.c ****         /* Disable RX interrupt to protect global veriables */
 443:Generated_Source\PSoC5/SPI_IMU.c ****         SPI_IMU_DisableRxInt();
 444:Generated_Source\PSoC5/SPI_IMU.c **** 
 445:Generated_Source\PSoC5/SPI_IMU.c ****         tmpStatus = SPI_IMU_GET_STATUS_RX(SPI_IMU_swStatusRx);
 446:Generated_Source\PSoC5/SPI_IMU.c ****         SPI_IMU_swStatusRx = 0u;
 447:Generated_Source\PSoC5/SPI_IMU.c **** 
 448:Generated_Source\PSoC5/SPI_IMU.c ****         SPI_IMU_EnableRxInt();
 449:Generated_Source\PSoC5/SPI_IMU.c **** 
 450:Generated_Source\PSoC5/SPI_IMU.c ****     #else
 451:Generated_Source\PSoC5/SPI_IMU.c **** 
 452:Generated_Source\PSoC5/SPI_IMU.c ****         tmpStatus = SPI_IMU_RX_STATUS_REG;
 268              		.loc 1 452 0
 269 0000 014B     		ldr	r3, .L21
 270 0002 1878     		ldrb	r0, [r3]	@ zero_extendqisi2
 271              	.LVL7:
 453:Generated_Source\PSoC5/SPI_IMU.c **** 
 454:Generated_Source\PSoC5/SPI_IMU.c ****     #endif /* (SPI_IMU_RX_SOFTWARE_BUF_ENABLED) */
 455:Generated_Source\PSoC5/SPI_IMU.c **** 
 456:Generated_Source\PSoC5/SPI_IMU.c ****     return(tmpStatus);
 457:Generated_Source\PSoC5/SPI_IMU.c **** }
 272              		.loc 1 457 0
 273 0004 7047     		bx	lr
 274              	.L22:
 275 0006 00BF     		.align	2
 276              	.L21:
 277 0008 64640040 		.word	1073767524
 278              		.cfi_endproc
 279              	.LFE11:
 280              		.size	SPI_IMU_ReadRxStatus, .-SPI_IMU_ReadRxStatus
ARM GAS  C:\Users\mgnocco\AppData\Local\Temp\ccn1tU5b.s 			page 14


 281              		.section	.text.SPI_IMU_WriteTxData,"ax",%progbits
 282              		.align	1
 283              		.global	SPI_IMU_WriteTxData
 284              		.thumb
 285              		.thumb_func
 286              		.type	SPI_IMU_WriteTxData, %function
 287              	SPI_IMU_WriteTxData:
 288              	.LFB12:
 458:Generated_Source\PSoC5/SPI_IMU.c **** 
 459:Generated_Source\PSoC5/SPI_IMU.c **** 
 460:Generated_Source\PSoC5/SPI_IMU.c **** /*******************************************************************************
 461:Generated_Source\PSoC5/SPI_IMU.c **** * Function Name: SPI_IMU_WriteTxData
 462:Generated_Source\PSoC5/SPI_IMU.c **** ********************************************************************************
 463:Generated_Source\PSoC5/SPI_IMU.c **** *
 464:Generated_Source\PSoC5/SPI_IMU.c **** * Summary:
 465:Generated_Source\PSoC5/SPI_IMU.c **** *  Write a byte of data to be sent across the SPI.
 466:Generated_Source\PSoC5/SPI_IMU.c **** *
 467:Generated_Source\PSoC5/SPI_IMU.c **** * Parameters:
 468:Generated_Source\PSoC5/SPI_IMU.c **** *  txDataByte: The data value to send across the SPI.
 469:Generated_Source\PSoC5/SPI_IMU.c **** *
 470:Generated_Source\PSoC5/SPI_IMU.c **** * Return:
 471:Generated_Source\PSoC5/SPI_IMU.c **** *  None.
 472:Generated_Source\PSoC5/SPI_IMU.c **** *
 473:Generated_Source\PSoC5/SPI_IMU.c **** * Global variables:
 474:Generated_Source\PSoC5/SPI_IMU.c **** *  SPI_IMU_txBufferWrite - used for the account of the bytes which
 475:Generated_Source\PSoC5/SPI_IMU.c **** *  have been written down in the TX software buffer, modified every function
 476:Generated_Source\PSoC5/SPI_IMU.c **** *  call if TX Software Buffer is used.
 477:Generated_Source\PSoC5/SPI_IMU.c **** *  SPI_IMU_txBufferRead - used for the account of the bytes which
 478:Generated_Source\PSoC5/SPI_IMU.c **** *  have been read from the TX software buffer.
 479:Generated_Source\PSoC5/SPI_IMU.c **** *  SPI_IMU_txBuffer[SPI_IMU_TX_BUFFER_SIZE] - used to store
 480:Generated_Source\PSoC5/SPI_IMU.c **** *  data to sending, modified every function call if TX Software Buffer is used.
 481:Generated_Source\PSoC5/SPI_IMU.c **** *
 482:Generated_Source\PSoC5/SPI_IMU.c **** * Theory:
 483:Generated_Source\PSoC5/SPI_IMU.c **** *  Allows the user to transmit any byte of data in a single transfer.
 484:Generated_Source\PSoC5/SPI_IMU.c **** *
 485:Generated_Source\PSoC5/SPI_IMU.c **** * Side Effects:
 486:Generated_Source\PSoC5/SPI_IMU.c **** *  If this function is called again before the previous byte is finished then
 487:Generated_Source\PSoC5/SPI_IMU.c **** *  the next byte will be appended to the transfer with no time between
 488:Generated_Source\PSoC5/SPI_IMU.c **** *  the byte transfers. Clear Tx status register of the component.
 489:Generated_Source\PSoC5/SPI_IMU.c **** *
 490:Generated_Source\PSoC5/SPI_IMU.c **** * Reentrant:
 491:Generated_Source\PSoC5/SPI_IMU.c **** *  No.
 492:Generated_Source\PSoC5/SPI_IMU.c **** *
 493:Generated_Source\PSoC5/SPI_IMU.c **** *******************************************************************************/
 494:Generated_Source\PSoC5/SPI_IMU.c **** void SPI_IMU_WriteTxData(uint8 txData) 
 495:Generated_Source\PSoC5/SPI_IMU.c **** {
 289              		.loc 1 495 0
 290              		.cfi_startproc
 291              		@ args = 0, pretend = 0, frame = 0
 292              		@ frame_needed = 0, uses_anonymous_args = 0
 293              		@ link register save eliminated.
 294              	.LVL8:
 496:Generated_Source\PSoC5/SPI_IMU.c ****     #if(SPI_IMU_TX_SOFTWARE_BUF_ENABLED)
 497:Generated_Source\PSoC5/SPI_IMU.c **** 
 498:Generated_Source\PSoC5/SPI_IMU.c ****         uint8 tempStatus;
 499:Generated_Source\PSoC5/SPI_IMU.c ****         uint8 tmpTxBufferRead;
 500:Generated_Source\PSoC5/SPI_IMU.c **** 
ARM GAS  C:\Users\mgnocco\AppData\Local\Temp\ccn1tU5b.s 			page 15


 501:Generated_Source\PSoC5/SPI_IMU.c ****         /* Block if TX buffer is FULL: don't overwrite */
 502:Generated_Source\PSoC5/SPI_IMU.c ****         do
 503:Generated_Source\PSoC5/SPI_IMU.c ****         {
 504:Generated_Source\PSoC5/SPI_IMU.c ****             tmpTxBufferRead = SPI_IMU_txBufferRead;
 505:Generated_Source\PSoC5/SPI_IMU.c ****             if(0u == tmpTxBufferRead)
 506:Generated_Source\PSoC5/SPI_IMU.c ****             {
 507:Generated_Source\PSoC5/SPI_IMU.c ****                 tmpTxBufferRead = (SPI_IMU_TX_BUFFER_SIZE - 1u);
 508:Generated_Source\PSoC5/SPI_IMU.c ****             }
 509:Generated_Source\PSoC5/SPI_IMU.c ****             else
 510:Generated_Source\PSoC5/SPI_IMU.c ****             {
 511:Generated_Source\PSoC5/SPI_IMU.c ****                 tmpTxBufferRead--;
 512:Generated_Source\PSoC5/SPI_IMU.c ****             }
 513:Generated_Source\PSoC5/SPI_IMU.c **** 
 514:Generated_Source\PSoC5/SPI_IMU.c ****         }while(tmpTxBufferRead == SPI_IMU_txBufferWrite);
 515:Generated_Source\PSoC5/SPI_IMU.c **** 
 516:Generated_Source\PSoC5/SPI_IMU.c ****         /* Disable TX interrupt to protect global veriables */
 517:Generated_Source\PSoC5/SPI_IMU.c ****         SPI_IMU_DisableTxInt();
 518:Generated_Source\PSoC5/SPI_IMU.c **** 
 519:Generated_Source\PSoC5/SPI_IMU.c ****         tempStatus = SPI_IMU_GET_STATUS_TX(SPI_IMU_swStatusTx);
 520:Generated_Source\PSoC5/SPI_IMU.c ****         SPI_IMU_swStatusTx = tempStatus;
 521:Generated_Source\PSoC5/SPI_IMU.c **** 
 522:Generated_Source\PSoC5/SPI_IMU.c **** 
 523:Generated_Source\PSoC5/SPI_IMU.c ****         if((SPI_IMU_txBufferRead == SPI_IMU_txBufferWrite) &&
 524:Generated_Source\PSoC5/SPI_IMU.c ****            (0u != (SPI_IMU_swStatusTx & SPI_IMU_STS_TX_FIFO_NOT_FULL)))
 525:Generated_Source\PSoC5/SPI_IMU.c ****         {
 526:Generated_Source\PSoC5/SPI_IMU.c ****             /* Put data element into the TX FIFO */
 527:Generated_Source\PSoC5/SPI_IMU.c ****             CY_SET_REG8(SPI_IMU_TXDATA_PTR, txData);
 528:Generated_Source\PSoC5/SPI_IMU.c ****         }
 529:Generated_Source\PSoC5/SPI_IMU.c ****         else
 530:Generated_Source\PSoC5/SPI_IMU.c ****         {
 531:Generated_Source\PSoC5/SPI_IMU.c ****             /* Add to the TX software buffer */
 532:Generated_Source\PSoC5/SPI_IMU.c ****             SPI_IMU_txBufferWrite++;
 533:Generated_Source\PSoC5/SPI_IMU.c ****             if(SPI_IMU_txBufferWrite >= SPI_IMU_TX_BUFFER_SIZE)
 534:Generated_Source\PSoC5/SPI_IMU.c ****             {
 535:Generated_Source\PSoC5/SPI_IMU.c ****                 SPI_IMU_txBufferWrite = 0u;
 536:Generated_Source\PSoC5/SPI_IMU.c ****             }
 537:Generated_Source\PSoC5/SPI_IMU.c **** 
 538:Generated_Source\PSoC5/SPI_IMU.c ****             if(SPI_IMU_txBufferWrite == SPI_IMU_txBufferRead)
 539:Generated_Source\PSoC5/SPI_IMU.c ****             {
 540:Generated_Source\PSoC5/SPI_IMU.c ****                 SPI_IMU_txBufferRead++;
 541:Generated_Source\PSoC5/SPI_IMU.c ****                 if(SPI_IMU_txBufferRead >= SPI_IMU_TX_BUFFER_SIZE)
 542:Generated_Source\PSoC5/SPI_IMU.c ****                 {
 543:Generated_Source\PSoC5/SPI_IMU.c ****                     SPI_IMU_txBufferRead = 0u;
 544:Generated_Source\PSoC5/SPI_IMU.c ****                 }
 545:Generated_Source\PSoC5/SPI_IMU.c ****                 SPI_IMU_txBufferFull = 1u;
 546:Generated_Source\PSoC5/SPI_IMU.c ****             }
 547:Generated_Source\PSoC5/SPI_IMU.c **** 
 548:Generated_Source\PSoC5/SPI_IMU.c ****             SPI_IMU_txBuffer[SPI_IMU_txBufferWrite] = txData;
 549:Generated_Source\PSoC5/SPI_IMU.c **** 
 550:Generated_Source\PSoC5/SPI_IMU.c ****             SPI_IMU_TX_STATUS_MASK_REG |= SPI_IMU_STS_TX_FIFO_NOT_FULL;
 551:Generated_Source\PSoC5/SPI_IMU.c ****         }
 552:Generated_Source\PSoC5/SPI_IMU.c **** 
 553:Generated_Source\PSoC5/SPI_IMU.c ****         SPI_IMU_EnableTxInt();
 554:Generated_Source\PSoC5/SPI_IMU.c **** 
 555:Generated_Source\PSoC5/SPI_IMU.c ****     #else
 556:Generated_Source\PSoC5/SPI_IMU.c ****         /* Wait until TX FIFO has a place */
 557:Generated_Source\PSoC5/SPI_IMU.c ****         while(0u == (SPI_IMU_TX_STATUS_REG & SPI_IMU_STS_TX_FIFO_NOT_FULL))
ARM GAS  C:\Users\mgnocco\AppData\Local\Temp\ccn1tU5b.s 			page 16


 295              		.loc 1 557 0
 296 0000 034A     		ldr	r2, .L28
 297              	.L24:
 298              		.loc 1 557 0 is_stmt 0 discriminator 1
 299 0002 1378     		ldrb	r3, [r2]	@ zero_extendqisi2
 300 0004 5B07     		lsls	r3, r3, #29
 301 0006 FCD5     		bpl	.L24
 558:Generated_Source\PSoC5/SPI_IMU.c ****         {
 559:Generated_Source\PSoC5/SPI_IMU.c ****         }
 560:Generated_Source\PSoC5/SPI_IMU.c **** 
 561:Generated_Source\PSoC5/SPI_IMU.c ****         /* Put data element into the TX FIFO */
 562:Generated_Source\PSoC5/SPI_IMU.c ****         CY_SET_REG8(SPI_IMU_TXDATA_PTR, txData);
 302              		.loc 1 562 0 is_stmt 1
 303 0008 024B     		ldr	r3, .L28+4
 304 000a 1870     		strb	r0, [r3]
 305 000c 7047     		bx	lr
 306              	.L29:
 307 000e 00BF     		.align	2
 308              	.L28:
 309 0010 67650040 		.word	1073767783
 310 0014 47640040 		.word	1073767495
 311              		.cfi_endproc
 312              	.LFE12:
 313              		.size	SPI_IMU_WriteTxData, .-SPI_IMU_WriteTxData
 314              		.section	.text.SPI_IMU_ReadRxData,"ax",%progbits
 315              		.align	1
 316              		.global	SPI_IMU_ReadRxData
 317              		.thumb
 318              		.thumb_func
 319              		.type	SPI_IMU_ReadRxData, %function
 320              	SPI_IMU_ReadRxData:
 321              	.LFB13:
 563:Generated_Source\PSoC5/SPI_IMU.c **** 
 564:Generated_Source\PSoC5/SPI_IMU.c ****     #endif /* (SPI_IMU_TX_SOFTWARE_BUF_ENABLED) */
 565:Generated_Source\PSoC5/SPI_IMU.c **** }
 566:Generated_Source\PSoC5/SPI_IMU.c **** 
 567:Generated_Source\PSoC5/SPI_IMU.c **** 
 568:Generated_Source\PSoC5/SPI_IMU.c **** /*******************************************************************************
 569:Generated_Source\PSoC5/SPI_IMU.c **** * Function Name: SPI_IMU_ReadRxData
 570:Generated_Source\PSoC5/SPI_IMU.c **** ********************************************************************************
 571:Generated_Source\PSoC5/SPI_IMU.c **** *
 572:Generated_Source\PSoC5/SPI_IMU.c **** * Summary:
 573:Generated_Source\PSoC5/SPI_IMU.c **** *  Read the next byte of data received across the SPI.
 574:Generated_Source\PSoC5/SPI_IMU.c **** *
 575:Generated_Source\PSoC5/SPI_IMU.c **** * Parameters:
 576:Generated_Source\PSoC5/SPI_IMU.c **** *  None.
 577:Generated_Source\PSoC5/SPI_IMU.c **** *
 578:Generated_Source\PSoC5/SPI_IMU.c **** * Return:
 579:Generated_Source\PSoC5/SPI_IMU.c **** *  The next byte of data read from the FIFO.
 580:Generated_Source\PSoC5/SPI_IMU.c **** *
 581:Generated_Source\PSoC5/SPI_IMU.c **** * Global variables:
 582:Generated_Source\PSoC5/SPI_IMU.c **** *  SPI_IMU_rxBufferWrite - used for the account of the bytes which
 583:Generated_Source\PSoC5/SPI_IMU.c **** *  have been written down in the RX software buffer.
 584:Generated_Source\PSoC5/SPI_IMU.c **** *  SPI_IMU_rxBufferRead - used for the account of the bytes which
 585:Generated_Source\PSoC5/SPI_IMU.c **** *  have been read from the RX software buffer, modified every function
 586:Generated_Source\PSoC5/SPI_IMU.c **** *  call if RX Software Buffer is used.
 587:Generated_Source\PSoC5/SPI_IMU.c **** *  SPI_IMU_rxBuffer[SPI_IMU_RX_BUFFER_SIZE] - used to store
ARM GAS  C:\Users\mgnocco\AppData\Local\Temp\ccn1tU5b.s 			page 17


 588:Generated_Source\PSoC5/SPI_IMU.c **** *  received data.
 589:Generated_Source\PSoC5/SPI_IMU.c **** *
 590:Generated_Source\PSoC5/SPI_IMU.c **** * Theory:
 591:Generated_Source\PSoC5/SPI_IMU.c **** *  Allows the user to read a byte of data received.
 592:Generated_Source\PSoC5/SPI_IMU.c **** *
 593:Generated_Source\PSoC5/SPI_IMU.c **** * Side Effects:
 594:Generated_Source\PSoC5/SPI_IMU.c **** *  Will return invalid data if the FIFO is empty. The user should Call
 595:Generated_Source\PSoC5/SPI_IMU.c **** *  GetRxBufferSize() and if it returns a non-zero value then it is safe to call
 596:Generated_Source\PSoC5/SPI_IMU.c **** *  ReadByte() function.
 597:Generated_Source\PSoC5/SPI_IMU.c **** *
 598:Generated_Source\PSoC5/SPI_IMU.c **** * Reentrant:
 599:Generated_Source\PSoC5/SPI_IMU.c **** *  No.
 600:Generated_Source\PSoC5/SPI_IMU.c **** *
 601:Generated_Source\PSoC5/SPI_IMU.c **** *******************************************************************************/
 602:Generated_Source\PSoC5/SPI_IMU.c **** uint8 SPI_IMU_ReadRxData(void) 
 603:Generated_Source\PSoC5/SPI_IMU.c **** {
 322              		.loc 1 603 0
 323              		.cfi_startproc
 324              		@ args = 0, pretend = 0, frame = 0
 325              		@ frame_needed = 0, uses_anonymous_args = 0
 326              		@ link register save eliminated.
 604:Generated_Source\PSoC5/SPI_IMU.c ****     uint8 rxData;
 605:Generated_Source\PSoC5/SPI_IMU.c **** 
 606:Generated_Source\PSoC5/SPI_IMU.c ****     #if(SPI_IMU_RX_SOFTWARE_BUF_ENABLED)
 607:Generated_Source\PSoC5/SPI_IMU.c **** 
 608:Generated_Source\PSoC5/SPI_IMU.c ****         /* Disable RX interrupt to protect global veriables */
 609:Generated_Source\PSoC5/SPI_IMU.c ****         SPI_IMU_DisableRxInt();
 610:Generated_Source\PSoC5/SPI_IMU.c **** 
 611:Generated_Source\PSoC5/SPI_IMU.c ****         if(SPI_IMU_rxBufferRead != SPI_IMU_rxBufferWrite)
 612:Generated_Source\PSoC5/SPI_IMU.c ****         {
 613:Generated_Source\PSoC5/SPI_IMU.c ****             if(0u == SPI_IMU_rxBufferFull)
 614:Generated_Source\PSoC5/SPI_IMU.c ****             {
 615:Generated_Source\PSoC5/SPI_IMU.c ****                 SPI_IMU_rxBufferRead++;
 616:Generated_Source\PSoC5/SPI_IMU.c ****                 if(SPI_IMU_rxBufferRead >= SPI_IMU_RX_BUFFER_SIZE)
 617:Generated_Source\PSoC5/SPI_IMU.c ****                 {
 618:Generated_Source\PSoC5/SPI_IMU.c ****                     SPI_IMU_rxBufferRead = 0u;
 619:Generated_Source\PSoC5/SPI_IMU.c ****                 }
 620:Generated_Source\PSoC5/SPI_IMU.c ****             }
 621:Generated_Source\PSoC5/SPI_IMU.c ****             else
 622:Generated_Source\PSoC5/SPI_IMU.c ****             {
 623:Generated_Source\PSoC5/SPI_IMU.c ****                 SPI_IMU_rxBufferFull = 0u;
 624:Generated_Source\PSoC5/SPI_IMU.c ****             }
 625:Generated_Source\PSoC5/SPI_IMU.c ****         }
 626:Generated_Source\PSoC5/SPI_IMU.c **** 
 627:Generated_Source\PSoC5/SPI_IMU.c ****         rxData = SPI_IMU_rxBuffer[SPI_IMU_rxBufferRead];
 628:Generated_Source\PSoC5/SPI_IMU.c **** 
 629:Generated_Source\PSoC5/SPI_IMU.c ****         SPI_IMU_EnableRxInt();
 630:Generated_Source\PSoC5/SPI_IMU.c **** 
 631:Generated_Source\PSoC5/SPI_IMU.c ****     #else
 632:Generated_Source\PSoC5/SPI_IMU.c **** 
 633:Generated_Source\PSoC5/SPI_IMU.c ****         rxData = CY_GET_REG8(SPI_IMU_RXDATA_PTR);
 327              		.loc 1 633 0
 328 0000 014B     		ldr	r3, .L31
 329 0002 1878     		ldrb	r0, [r3]	@ zero_extendqisi2
 330              	.LVL9:
 634:Generated_Source\PSoC5/SPI_IMU.c **** 
 635:Generated_Source\PSoC5/SPI_IMU.c ****     #endif /* (SPI_IMU_RX_SOFTWARE_BUF_ENABLED) */
ARM GAS  C:\Users\mgnocco\AppData\Local\Temp\ccn1tU5b.s 			page 18


 636:Generated_Source\PSoC5/SPI_IMU.c **** 
 637:Generated_Source\PSoC5/SPI_IMU.c ****     return(rxData);
 638:Generated_Source\PSoC5/SPI_IMU.c **** }
 331              		.loc 1 638 0
 332 0004 7047     		bx	lr
 333              	.L32:
 334 0006 00BF     		.align	2
 335              	.L31:
 336 0008 57640040 		.word	1073767511
 337              		.cfi_endproc
 338              	.LFE13:
 339              		.size	SPI_IMU_ReadRxData, .-SPI_IMU_ReadRxData
 340              		.section	.text.SPI_IMU_GetRxBufferSize,"ax",%progbits
 341              		.align	1
 342              		.global	SPI_IMU_GetRxBufferSize
 343              		.thumb
 344              		.thumb_func
 345              		.type	SPI_IMU_GetRxBufferSize, %function
 346              	SPI_IMU_GetRxBufferSize:
 347              	.LFB14:
 639:Generated_Source\PSoC5/SPI_IMU.c **** 
 640:Generated_Source\PSoC5/SPI_IMU.c **** 
 641:Generated_Source\PSoC5/SPI_IMU.c **** /*******************************************************************************
 642:Generated_Source\PSoC5/SPI_IMU.c **** * Function Name: SPI_IMU_GetRxBufferSize
 643:Generated_Source\PSoC5/SPI_IMU.c **** ********************************************************************************
 644:Generated_Source\PSoC5/SPI_IMU.c **** *
 645:Generated_Source\PSoC5/SPI_IMU.c **** * Summary:
 646:Generated_Source\PSoC5/SPI_IMU.c **** *  Returns the number of bytes/words of data currently held in the RX buffer.
 647:Generated_Source\PSoC5/SPI_IMU.c **** *  If RX Software Buffer not used then function return 0 if FIFO empty or 1 if
 648:Generated_Source\PSoC5/SPI_IMU.c **** *  FIFO not empty. In another case function return size of RX Software Buffer.
 649:Generated_Source\PSoC5/SPI_IMU.c **** *
 650:Generated_Source\PSoC5/SPI_IMU.c **** * Parameters:
 651:Generated_Source\PSoC5/SPI_IMU.c **** *  None.
 652:Generated_Source\PSoC5/SPI_IMU.c **** *
 653:Generated_Source\PSoC5/SPI_IMU.c **** * Return:
 654:Generated_Source\PSoC5/SPI_IMU.c **** *  Integer count of the number of bytes/words in the RX buffer.
 655:Generated_Source\PSoC5/SPI_IMU.c **** *
 656:Generated_Source\PSoC5/SPI_IMU.c **** * Global variables:
 657:Generated_Source\PSoC5/SPI_IMU.c **** *  SPI_IMU_rxBufferWrite - used for the account of the bytes which
 658:Generated_Source\PSoC5/SPI_IMU.c **** *  have been written down in the RX software buffer.
 659:Generated_Source\PSoC5/SPI_IMU.c **** *  SPI_IMU_rxBufferRead - used for the account of the bytes which
 660:Generated_Source\PSoC5/SPI_IMU.c **** *  have been read from the RX software buffer.
 661:Generated_Source\PSoC5/SPI_IMU.c **** *
 662:Generated_Source\PSoC5/SPI_IMU.c **** * Side Effects:
 663:Generated_Source\PSoC5/SPI_IMU.c **** *  Clear status register of the component.
 664:Generated_Source\PSoC5/SPI_IMU.c **** *
 665:Generated_Source\PSoC5/SPI_IMU.c **** *******************************************************************************/
 666:Generated_Source\PSoC5/SPI_IMU.c **** uint8 SPI_IMU_GetRxBufferSize(void) 
 667:Generated_Source\PSoC5/SPI_IMU.c **** {
 348              		.loc 1 667 0
 349              		.cfi_startproc
 350              		@ args = 0, pretend = 0, frame = 0
 351              		@ frame_needed = 0, uses_anonymous_args = 0
 352              		@ link register save eliminated.
 668:Generated_Source\PSoC5/SPI_IMU.c ****     uint8 size;
 669:Generated_Source\PSoC5/SPI_IMU.c **** 
 670:Generated_Source\PSoC5/SPI_IMU.c ****     #if(SPI_IMU_RX_SOFTWARE_BUF_ENABLED)
ARM GAS  C:\Users\mgnocco\AppData\Local\Temp\ccn1tU5b.s 			page 19


 671:Generated_Source\PSoC5/SPI_IMU.c **** 
 672:Generated_Source\PSoC5/SPI_IMU.c ****         /* Disable RX interrupt to protect global veriables */
 673:Generated_Source\PSoC5/SPI_IMU.c ****         SPI_IMU_DisableRxInt();
 674:Generated_Source\PSoC5/SPI_IMU.c **** 
 675:Generated_Source\PSoC5/SPI_IMU.c ****         if(SPI_IMU_rxBufferRead == SPI_IMU_rxBufferWrite)
 676:Generated_Source\PSoC5/SPI_IMU.c ****         {
 677:Generated_Source\PSoC5/SPI_IMU.c ****             size = 0u;
 678:Generated_Source\PSoC5/SPI_IMU.c ****         }
 679:Generated_Source\PSoC5/SPI_IMU.c ****         else if(SPI_IMU_rxBufferRead < SPI_IMU_rxBufferWrite)
 680:Generated_Source\PSoC5/SPI_IMU.c ****         {
 681:Generated_Source\PSoC5/SPI_IMU.c ****             size = (SPI_IMU_rxBufferWrite - SPI_IMU_rxBufferRead);
 682:Generated_Source\PSoC5/SPI_IMU.c ****         }
 683:Generated_Source\PSoC5/SPI_IMU.c ****         else
 684:Generated_Source\PSoC5/SPI_IMU.c ****         {
 685:Generated_Source\PSoC5/SPI_IMU.c ****             size = (SPI_IMU_RX_BUFFER_SIZE - SPI_IMU_rxBufferRead) + SPI_IMU_rxBufferWrite;
 686:Generated_Source\PSoC5/SPI_IMU.c ****         }
 687:Generated_Source\PSoC5/SPI_IMU.c **** 
 688:Generated_Source\PSoC5/SPI_IMU.c ****         SPI_IMU_EnableRxInt();
 689:Generated_Source\PSoC5/SPI_IMU.c **** 
 690:Generated_Source\PSoC5/SPI_IMU.c ****     #else
 691:Generated_Source\PSoC5/SPI_IMU.c **** 
 692:Generated_Source\PSoC5/SPI_IMU.c ****         /* We can only know if there is data in the RX FIFO */
 693:Generated_Source\PSoC5/SPI_IMU.c ****         size = (0u != (SPI_IMU_RX_STATUS_REG & SPI_IMU_STS_RX_FIFO_NOT_EMPTY)) ? 1u : 0u;
 353              		.loc 1 693 0
 354 0000 024B     		ldr	r3, .L34
 355 0002 1878     		ldrb	r0, [r3]	@ zero_extendqisi2
 356              	.LVL10:
 694:Generated_Source\PSoC5/SPI_IMU.c **** 
 695:Generated_Source\PSoC5/SPI_IMU.c ****     #endif /* (SPI_IMU_TX_SOFTWARE_BUF_ENABLED) */
 696:Generated_Source\PSoC5/SPI_IMU.c **** 
 697:Generated_Source\PSoC5/SPI_IMU.c ****     return(size);
 698:Generated_Source\PSoC5/SPI_IMU.c **** }
 357              		.loc 1 698 0
 358 0004 C0F34010 		ubfx	r0, r0, #5, #1
 359              	.LVL11:
 360 0008 7047     		bx	lr
 361              	.L35:
 362 000a 00BF     		.align	2
 363              	.L34:
 364 000c 64640040 		.word	1073767524
 365              		.cfi_endproc
 366              	.LFE14:
 367              		.size	SPI_IMU_GetRxBufferSize, .-SPI_IMU_GetRxBufferSize
 368              		.section	.text.SPI_IMU_GetTxBufferSize,"ax",%progbits
 369              		.align	1
 370              		.global	SPI_IMU_GetTxBufferSize
 371              		.thumb
 372              		.thumb_func
 373              		.type	SPI_IMU_GetTxBufferSize, %function
 374              	SPI_IMU_GetTxBufferSize:
 375              	.LFB15:
 699:Generated_Source\PSoC5/SPI_IMU.c **** 
 700:Generated_Source\PSoC5/SPI_IMU.c **** 
 701:Generated_Source\PSoC5/SPI_IMU.c **** /*******************************************************************************
 702:Generated_Source\PSoC5/SPI_IMU.c **** * Function Name: SPI_IMU_GetTxBufferSize
 703:Generated_Source\PSoC5/SPI_IMU.c **** ********************************************************************************
 704:Generated_Source\PSoC5/SPI_IMU.c **** *
ARM GAS  C:\Users\mgnocco\AppData\Local\Temp\ccn1tU5b.s 			page 20


 705:Generated_Source\PSoC5/SPI_IMU.c **** * Summary:
 706:Generated_Source\PSoC5/SPI_IMU.c **** *  Returns the number of bytes/words of data currently held in the TX buffer.
 707:Generated_Source\PSoC5/SPI_IMU.c **** *  If TX Software Buffer not used then function return 0 - if FIFO empty, 1 - if
 708:Generated_Source\PSoC5/SPI_IMU.c **** *  FIFO not full, 4 - if FIFO full. In another case function return size of TX
 709:Generated_Source\PSoC5/SPI_IMU.c **** *  Software Buffer.
 710:Generated_Source\PSoC5/SPI_IMU.c **** *
 711:Generated_Source\PSoC5/SPI_IMU.c **** * Parameters:
 712:Generated_Source\PSoC5/SPI_IMU.c **** *  None.
 713:Generated_Source\PSoC5/SPI_IMU.c **** *
 714:Generated_Source\PSoC5/SPI_IMU.c **** * Return:
 715:Generated_Source\PSoC5/SPI_IMU.c **** *  Integer count of the number of bytes/words in the TX buffer.
 716:Generated_Source\PSoC5/SPI_IMU.c **** *
 717:Generated_Source\PSoC5/SPI_IMU.c **** * Global variables:
 718:Generated_Source\PSoC5/SPI_IMU.c **** *  SPI_IMU_txBufferWrite - used for the account of the bytes which
 719:Generated_Source\PSoC5/SPI_IMU.c **** *  have been written down in the TX software buffer.
 720:Generated_Source\PSoC5/SPI_IMU.c **** *  SPI_IMU_txBufferRead - used for the account of the bytes which
 721:Generated_Source\PSoC5/SPI_IMU.c **** *  have been read from the TX software buffer.
 722:Generated_Source\PSoC5/SPI_IMU.c **** *
 723:Generated_Source\PSoC5/SPI_IMU.c **** * Side Effects:
 724:Generated_Source\PSoC5/SPI_IMU.c **** *  Clear status register of the component.
 725:Generated_Source\PSoC5/SPI_IMU.c **** *
 726:Generated_Source\PSoC5/SPI_IMU.c **** *******************************************************************************/
 727:Generated_Source\PSoC5/SPI_IMU.c **** uint8  SPI_IMU_GetTxBufferSize(void) 
 728:Generated_Source\PSoC5/SPI_IMU.c **** {
 376              		.loc 1 728 0
 377              		.cfi_startproc
 378              		@ args = 0, pretend = 0, frame = 0
 379              		@ frame_needed = 0, uses_anonymous_args = 0
 380              		@ link register save eliminated.
 729:Generated_Source\PSoC5/SPI_IMU.c ****     uint8 size;
 730:Generated_Source\PSoC5/SPI_IMU.c **** 
 731:Generated_Source\PSoC5/SPI_IMU.c ****     #if(SPI_IMU_TX_SOFTWARE_BUF_ENABLED)
 732:Generated_Source\PSoC5/SPI_IMU.c ****         /* Disable TX interrupt to protect global veriables */
 733:Generated_Source\PSoC5/SPI_IMU.c ****         SPI_IMU_DisableTxInt();
 734:Generated_Source\PSoC5/SPI_IMU.c **** 
 735:Generated_Source\PSoC5/SPI_IMU.c ****         if(SPI_IMU_txBufferRead == SPI_IMU_txBufferWrite)
 736:Generated_Source\PSoC5/SPI_IMU.c ****         {
 737:Generated_Source\PSoC5/SPI_IMU.c ****             size = 0u;
 738:Generated_Source\PSoC5/SPI_IMU.c ****         }
 739:Generated_Source\PSoC5/SPI_IMU.c ****         else if(SPI_IMU_txBufferRead < SPI_IMU_txBufferWrite)
 740:Generated_Source\PSoC5/SPI_IMU.c ****         {
 741:Generated_Source\PSoC5/SPI_IMU.c ****             size = (SPI_IMU_txBufferWrite - SPI_IMU_txBufferRead);
 742:Generated_Source\PSoC5/SPI_IMU.c ****         }
 743:Generated_Source\PSoC5/SPI_IMU.c ****         else
 744:Generated_Source\PSoC5/SPI_IMU.c ****         {
 745:Generated_Source\PSoC5/SPI_IMU.c ****             size = (SPI_IMU_TX_BUFFER_SIZE - SPI_IMU_txBufferRead) + SPI_IMU_txBufferWrite;
 746:Generated_Source\PSoC5/SPI_IMU.c ****         }
 747:Generated_Source\PSoC5/SPI_IMU.c **** 
 748:Generated_Source\PSoC5/SPI_IMU.c ****         SPI_IMU_EnableTxInt();
 749:Generated_Source\PSoC5/SPI_IMU.c **** 
 750:Generated_Source\PSoC5/SPI_IMU.c ****     #else
 751:Generated_Source\PSoC5/SPI_IMU.c **** 
 752:Generated_Source\PSoC5/SPI_IMU.c ****         size = SPI_IMU_TX_STATUS_REG;
 381              		.loc 1 752 0
 382 0000 064B     		ldr	r3, .L40
 383 0002 1B78     		ldrb	r3, [r3]	@ zero_extendqisi2
 384 0004 DBB2     		uxtb	r3, r3
ARM GAS  C:\Users\mgnocco\AppData\Local\Temp\ccn1tU5b.s 			page 21


 385              	.LVL12:
 753:Generated_Source\PSoC5/SPI_IMU.c **** 
 754:Generated_Source\PSoC5/SPI_IMU.c ****         if(0u != (size & SPI_IMU_STS_TX_FIFO_EMPTY))
 386              		.loc 1 754 0
 387 0006 9A07     		lsls	r2, r3, #30
 388 0008 05D4     		bmi	.L38
 755:Generated_Source\PSoC5/SPI_IMU.c ****         {
 756:Generated_Source\PSoC5/SPI_IMU.c ****             size = 0u;
 757:Generated_Source\PSoC5/SPI_IMU.c ****         }
 758:Generated_Source\PSoC5/SPI_IMU.c ****         else if(0u != (size & SPI_IMU_STS_TX_FIFO_NOT_FULL))
 389              		.loc 1 758 0
 390 000a 13F0040F 		tst	r3, #4
 759:Generated_Source\PSoC5/SPI_IMU.c ****         {
 760:Generated_Source\PSoC5/SPI_IMU.c ****             size = 1u;
 761:Generated_Source\PSoC5/SPI_IMU.c ****         }
 762:Generated_Source\PSoC5/SPI_IMU.c ****         else
 763:Generated_Source\PSoC5/SPI_IMU.c ****         {
 764:Generated_Source\PSoC5/SPI_IMU.c ****             size = SPI_IMU_FIFO_SIZE;
 391              		.loc 1 764 0
 392 000e 14BF     		ite	ne
 393 0010 0120     		movne	r0, #1
 394 0012 0420     		moveq	r0, #4
 395 0014 7047     		bx	lr
 396              	.L38:
 756:Generated_Source\PSoC5/SPI_IMU.c ****         }
 397              		.loc 1 756 0
 398 0016 0020     		movs	r0, #0
 399              	.LVL13:
 765:Generated_Source\PSoC5/SPI_IMU.c ****         }
 766:Generated_Source\PSoC5/SPI_IMU.c **** 
 767:Generated_Source\PSoC5/SPI_IMU.c ****     #endif /* (SPI_IMU_TX_SOFTWARE_BUF_ENABLED) */
 768:Generated_Source\PSoC5/SPI_IMU.c **** 
 769:Generated_Source\PSoC5/SPI_IMU.c ****     return(size);
 770:Generated_Source\PSoC5/SPI_IMU.c **** }
 400              		.loc 1 770 0
 401 0018 7047     		bx	lr
 402              	.L41:
 403 001a 00BF     		.align	2
 404              	.L40:
 405 001c 67650040 		.word	1073767783
 406              		.cfi_endproc
 407              	.LFE15:
 408              		.size	SPI_IMU_GetTxBufferSize, .-SPI_IMU_GetTxBufferSize
 409              		.section	.text.SPI_IMU_ClearRxBuffer,"ax",%progbits
 410              		.align	1
 411              		.global	SPI_IMU_ClearRxBuffer
 412              		.thumb
 413              		.thumb_func
 414              		.type	SPI_IMU_ClearRxBuffer, %function
 415              	SPI_IMU_ClearRxBuffer:
 416              	.LFB16:
 771:Generated_Source\PSoC5/SPI_IMU.c **** 
 772:Generated_Source\PSoC5/SPI_IMU.c **** 
 773:Generated_Source\PSoC5/SPI_IMU.c **** /*******************************************************************************
 774:Generated_Source\PSoC5/SPI_IMU.c **** * Function Name: SPI_IMU_ClearRxBuffer
 775:Generated_Source\PSoC5/SPI_IMU.c **** ********************************************************************************
 776:Generated_Source\PSoC5/SPI_IMU.c **** *
ARM GAS  C:\Users\mgnocco\AppData\Local\Temp\ccn1tU5b.s 			page 22


 777:Generated_Source\PSoC5/SPI_IMU.c **** * Summary:
 778:Generated_Source\PSoC5/SPI_IMU.c **** *  Clear the RX RAM buffer by setting the read and write pointers both to zero.
 779:Generated_Source\PSoC5/SPI_IMU.c **** *
 780:Generated_Source\PSoC5/SPI_IMU.c **** * Parameters:
 781:Generated_Source\PSoC5/SPI_IMU.c **** *  None.
 782:Generated_Source\PSoC5/SPI_IMU.c **** *
 783:Generated_Source\PSoC5/SPI_IMU.c **** * Return:
 784:Generated_Source\PSoC5/SPI_IMU.c **** *  None.
 785:Generated_Source\PSoC5/SPI_IMU.c **** *
 786:Generated_Source\PSoC5/SPI_IMU.c **** * Global variables:
 787:Generated_Source\PSoC5/SPI_IMU.c **** *  SPI_IMU_rxBufferWrite - used for the account of the bytes which
 788:Generated_Source\PSoC5/SPI_IMU.c **** *  have been written down in the RX software buffer, modified every function
 789:Generated_Source\PSoC5/SPI_IMU.c **** *  call - resets to zero.
 790:Generated_Source\PSoC5/SPI_IMU.c **** *  SPI_IMU_rxBufferRead - used for the account of the bytes which
 791:Generated_Source\PSoC5/SPI_IMU.c **** *  have been read from the RX software buffer, modified every function call -
 792:Generated_Source\PSoC5/SPI_IMU.c **** *  resets to zero.
 793:Generated_Source\PSoC5/SPI_IMU.c **** *
 794:Generated_Source\PSoC5/SPI_IMU.c **** * Theory:
 795:Generated_Source\PSoC5/SPI_IMU.c **** *  Setting the pointers to zero makes the system believe there is no data to
 796:Generated_Source\PSoC5/SPI_IMU.c **** *  read and writing will resume at address 0 overwriting any data that may have
 797:Generated_Source\PSoC5/SPI_IMU.c **** *  remained in the RAM.
 798:Generated_Source\PSoC5/SPI_IMU.c **** *
 799:Generated_Source\PSoC5/SPI_IMU.c **** * Side Effects:
 800:Generated_Source\PSoC5/SPI_IMU.c **** *  Any received data not read from the RAM buffer will be lost when overwritten.
 801:Generated_Source\PSoC5/SPI_IMU.c **** *
 802:Generated_Source\PSoC5/SPI_IMU.c **** * Reentrant:
 803:Generated_Source\PSoC5/SPI_IMU.c **** *  No.
 804:Generated_Source\PSoC5/SPI_IMU.c **** *
 805:Generated_Source\PSoC5/SPI_IMU.c **** *******************************************************************************/
 806:Generated_Source\PSoC5/SPI_IMU.c **** void SPI_IMU_ClearRxBuffer(void) 
 807:Generated_Source\PSoC5/SPI_IMU.c **** {
 417              		.loc 1 807 0
 418              		.cfi_startproc
 419              		@ args = 0, pretend = 0, frame = 0
 420              		@ frame_needed = 0, uses_anonymous_args = 0
 421              		@ link register save eliminated.
 808:Generated_Source\PSoC5/SPI_IMU.c ****     /* Clear Hardware RX FIFO */
 809:Generated_Source\PSoC5/SPI_IMU.c ****     while(0u !=(SPI_IMU_RX_STATUS_REG & SPI_IMU_STS_RX_FIFO_NOT_EMPTY))
 422              		.loc 1 809 0
 423 0000 034A     		ldr	r2, .L46
 810:Generated_Source\PSoC5/SPI_IMU.c ****     {
 811:Generated_Source\PSoC5/SPI_IMU.c ****         (void) CY_GET_REG8(SPI_IMU_RXDATA_PTR);
 424              		.loc 1 811 0
 425 0002 0449     		ldr	r1, .L46+4
 426              	.L43:
 809:Generated_Source\PSoC5/SPI_IMU.c ****     {
 427              		.loc 1 809 0
 428 0004 1378     		ldrb	r3, [r2]	@ zero_extendqisi2
 429 0006 9B06     		lsls	r3, r3, #26
 430 0008 01D5     		bpl	.L45
 431              		.loc 1 811 0
 432 000a 0B78     		ldrb	r3, [r1]	@ zero_extendqisi2
 433 000c FAE7     		b	.L43
 434              	.L45:
 812:Generated_Source\PSoC5/SPI_IMU.c ****     }
 813:Generated_Source\PSoC5/SPI_IMU.c **** 
 814:Generated_Source\PSoC5/SPI_IMU.c ****     #if(SPI_IMU_RX_SOFTWARE_BUF_ENABLED)
ARM GAS  C:\Users\mgnocco\AppData\Local\Temp\ccn1tU5b.s 			page 23


 815:Generated_Source\PSoC5/SPI_IMU.c ****         /* Disable RX interrupt to protect global veriables */
 816:Generated_Source\PSoC5/SPI_IMU.c ****         SPI_IMU_DisableRxInt();
 817:Generated_Source\PSoC5/SPI_IMU.c **** 
 818:Generated_Source\PSoC5/SPI_IMU.c ****         SPI_IMU_rxBufferFull  = 0u;
 819:Generated_Source\PSoC5/SPI_IMU.c ****         SPI_IMU_rxBufferRead  = 0u;
 820:Generated_Source\PSoC5/SPI_IMU.c ****         SPI_IMU_rxBufferWrite = 0u;
 821:Generated_Source\PSoC5/SPI_IMU.c **** 
 822:Generated_Source\PSoC5/SPI_IMU.c ****         SPI_IMU_EnableRxInt();
 823:Generated_Source\PSoC5/SPI_IMU.c ****     #endif /* (SPI_IMU_RX_SOFTWARE_BUF_ENABLED) */
 824:Generated_Source\PSoC5/SPI_IMU.c **** }
 435              		.loc 1 824 0
 436 000e 7047     		bx	lr
 437              	.L47:
 438              		.align	2
 439              	.L46:
 440 0010 64640040 		.word	1073767524
 441 0014 57640040 		.word	1073767511
 442              		.cfi_endproc
 443              	.LFE16:
 444              		.size	SPI_IMU_ClearRxBuffer, .-SPI_IMU_ClearRxBuffer
 445              		.section	.text.SPI_IMU_ClearTxBuffer,"ax",%progbits
 446              		.align	1
 447              		.global	SPI_IMU_ClearTxBuffer
 448              		.thumb
 449              		.thumb_func
 450              		.type	SPI_IMU_ClearTxBuffer, %function
 451              	SPI_IMU_ClearTxBuffer:
 452              	.LFB17:
 825:Generated_Source\PSoC5/SPI_IMU.c **** 
 826:Generated_Source\PSoC5/SPI_IMU.c **** 
 827:Generated_Source\PSoC5/SPI_IMU.c **** /*******************************************************************************
 828:Generated_Source\PSoC5/SPI_IMU.c **** * Function Name: SPI_IMU_ClearTxBuffer
 829:Generated_Source\PSoC5/SPI_IMU.c **** ********************************************************************************
 830:Generated_Source\PSoC5/SPI_IMU.c **** *
 831:Generated_Source\PSoC5/SPI_IMU.c **** * Summary:
 832:Generated_Source\PSoC5/SPI_IMU.c **** *  Clear the TX RAM buffer by setting the read and write pointers both to zero.
 833:Generated_Source\PSoC5/SPI_IMU.c **** *
 834:Generated_Source\PSoC5/SPI_IMU.c **** * Parameters:
 835:Generated_Source\PSoC5/SPI_IMU.c **** *  None.
 836:Generated_Source\PSoC5/SPI_IMU.c **** *
 837:Generated_Source\PSoC5/SPI_IMU.c **** * Return:
 838:Generated_Source\PSoC5/SPI_IMU.c **** *  None.
 839:Generated_Source\PSoC5/SPI_IMU.c **** *
 840:Generated_Source\PSoC5/SPI_IMU.c **** * Global variables:
 841:Generated_Source\PSoC5/SPI_IMU.c **** *  SPI_IMU_txBufferWrite - used for the account of the bytes which
 842:Generated_Source\PSoC5/SPI_IMU.c **** *  have been written down in the TX software buffer, modified every function
 843:Generated_Source\PSoC5/SPI_IMU.c **** *  call - resets to zero.
 844:Generated_Source\PSoC5/SPI_IMU.c **** *  SPI_IMU_txBufferRead - used for the account of the bytes which
 845:Generated_Source\PSoC5/SPI_IMU.c **** *  have been read from the TX software buffer, modified every function call -
 846:Generated_Source\PSoC5/SPI_IMU.c **** *  resets to zero.
 847:Generated_Source\PSoC5/SPI_IMU.c **** *
 848:Generated_Source\PSoC5/SPI_IMU.c **** * Theory:
 849:Generated_Source\PSoC5/SPI_IMU.c **** *  Setting the pointers to zero makes the system believe there is no data to
 850:Generated_Source\PSoC5/SPI_IMU.c **** *  read and writing will resume at address 0 overwriting any data that may have
 851:Generated_Source\PSoC5/SPI_IMU.c **** *  remained in the RAM.
 852:Generated_Source\PSoC5/SPI_IMU.c **** *
 853:Generated_Source\PSoC5/SPI_IMU.c **** * Side Effects:
ARM GAS  C:\Users\mgnocco\AppData\Local\Temp\ccn1tU5b.s 			page 24


 854:Generated_Source\PSoC5/SPI_IMU.c **** *  Any data not yet transmitted from the RAM buffer will be lost when
 855:Generated_Source\PSoC5/SPI_IMU.c **** *  overwritten.
 856:Generated_Source\PSoC5/SPI_IMU.c **** *
 857:Generated_Source\PSoC5/SPI_IMU.c **** * Reentrant:
 858:Generated_Source\PSoC5/SPI_IMU.c **** *  No.
 859:Generated_Source\PSoC5/SPI_IMU.c **** *
 860:Generated_Source\PSoC5/SPI_IMU.c **** *******************************************************************************/
 861:Generated_Source\PSoC5/SPI_IMU.c **** void SPI_IMU_ClearTxBuffer(void) 
 862:Generated_Source\PSoC5/SPI_IMU.c **** {
 453              		.loc 1 862 0
 454              		.cfi_startproc
 455              		@ args = 0, pretend = 0, frame = 0
 456              		@ frame_needed = 0, uses_anonymous_args = 0
 457 0000 08B5     		push	{r3, lr}
 458              		.cfi_def_cfa_offset 8
 459              		.cfi_offset 3, -8
 460              		.cfi_offset 14, -4
 863:Generated_Source\PSoC5/SPI_IMU.c ****     uint8 enableInterrupts;
 864:Generated_Source\PSoC5/SPI_IMU.c **** 
 865:Generated_Source\PSoC5/SPI_IMU.c ****     enableInterrupts = CyEnterCriticalSection();
 461              		.loc 1 865 0
 462 0002 FFF7FEFF 		bl	CyEnterCriticalSection
 463              	.LVL14:
 866:Generated_Source\PSoC5/SPI_IMU.c ****     /* Clear TX FIFO */
 867:Generated_Source\PSoC5/SPI_IMU.c ****     SPI_IMU_AUX_CONTROL_DP0_REG |= ((uint8)  SPI_IMU_TX_FIFO_CLR);
 464              		.loc 1 867 0
 465 0006 064B     		ldr	r3, .L49
 466 0008 1A78     		ldrb	r2, [r3]	@ zero_extendqisi2
 467 000a 42F00102 		orr	r2, r2, #1
 468 000e 1A70     		strb	r2, [r3]
 868:Generated_Source\PSoC5/SPI_IMU.c ****     SPI_IMU_AUX_CONTROL_DP0_REG &= ((uint8) ~SPI_IMU_TX_FIFO_CLR);
 469              		.loc 1 868 0
 470 0010 1A78     		ldrb	r2, [r3]	@ zero_extendqisi2
 471 0012 02F0FE02 		and	r2, r2, #254
 472 0016 1A70     		strb	r2, [r3]
 869:Generated_Source\PSoC5/SPI_IMU.c **** 
 870:Generated_Source\PSoC5/SPI_IMU.c ****     #if(SPI_IMU_USE_SECOND_DATAPATH)
 871:Generated_Source\PSoC5/SPI_IMU.c ****         /* Clear TX FIFO for 2nd Datapath */
 872:Generated_Source\PSoC5/SPI_IMU.c ****         SPI_IMU_AUX_CONTROL_DP1_REG |= ((uint8)  SPI_IMU_TX_FIFO_CLR);
 873:Generated_Source\PSoC5/SPI_IMU.c ****         SPI_IMU_AUX_CONTROL_DP1_REG &= ((uint8) ~SPI_IMU_TX_FIFO_CLR);
 874:Generated_Source\PSoC5/SPI_IMU.c ****     #endif /* (SPI_IMU_USE_SECOND_DATAPATH) */
 875:Generated_Source\PSoC5/SPI_IMU.c ****     CyExitCriticalSection(enableInterrupts);
 876:Generated_Source\PSoC5/SPI_IMU.c **** 
 877:Generated_Source\PSoC5/SPI_IMU.c ****     #if(SPI_IMU_TX_SOFTWARE_BUF_ENABLED)
 878:Generated_Source\PSoC5/SPI_IMU.c ****         /* Disable TX interrupt to protect global veriables */
 879:Generated_Source\PSoC5/SPI_IMU.c ****         SPI_IMU_DisableTxInt();
 880:Generated_Source\PSoC5/SPI_IMU.c **** 
 881:Generated_Source\PSoC5/SPI_IMU.c ****         SPI_IMU_txBufferFull  = 0u;
 882:Generated_Source\PSoC5/SPI_IMU.c ****         SPI_IMU_txBufferRead  = 0u;
 883:Generated_Source\PSoC5/SPI_IMU.c ****         SPI_IMU_txBufferWrite = 0u;
 884:Generated_Source\PSoC5/SPI_IMU.c **** 
 885:Generated_Source\PSoC5/SPI_IMU.c ****         /* Buffer is EMPTY: disable TX FIFO NOT FULL interrupt */
 886:Generated_Source\PSoC5/SPI_IMU.c ****         SPI_IMU_TX_STATUS_MASK_REG &= ((uint8) ~SPI_IMU_STS_TX_FIFO_NOT_FULL);
 887:Generated_Source\PSoC5/SPI_IMU.c **** 
 888:Generated_Source\PSoC5/SPI_IMU.c ****         SPI_IMU_EnableTxInt();
 889:Generated_Source\PSoC5/SPI_IMU.c ****     #endif /* (SPI_IMU_TX_SOFTWARE_BUF_ENABLED) */
 890:Generated_Source\PSoC5/SPI_IMU.c **** }
ARM GAS  C:\Users\mgnocco\AppData\Local\Temp\ccn1tU5b.s 			page 25


 473              		.loc 1 890 0
 474 0018 BDE80840 		pop	{r3, lr}
 475              		.cfi_restore 14
 476              		.cfi_restore 3
 477              		.cfi_def_cfa_offset 0
 875:Generated_Source\PSoC5/SPI_IMU.c **** 
 478              		.loc 1 875 0
 479 001c FFF7FEBF 		b	CyExitCriticalSection
 480              	.LVL15:
 481              	.L50:
 482              		.align	2
 483              	.L49:
 484 0020 97640040 		.word	1073767575
 485              		.cfi_endproc
 486              	.LFE17:
 487              		.size	SPI_IMU_ClearTxBuffer, .-SPI_IMU_ClearTxBuffer
 488              		.section	.text.SPI_IMU_PutArray,"ax",%progbits
 489              		.align	1
 490              		.global	SPI_IMU_PutArray
 491              		.thumb
 492              		.thumb_func
 493              		.type	SPI_IMU_PutArray, %function
 494              	SPI_IMU_PutArray:
 495              	.LFB18:
 891:Generated_Source\PSoC5/SPI_IMU.c **** 
 892:Generated_Source\PSoC5/SPI_IMU.c **** 
 893:Generated_Source\PSoC5/SPI_IMU.c **** #if(0u != SPI_IMU_BIDIRECTIONAL_MODE)
 894:Generated_Source\PSoC5/SPI_IMU.c ****     /*******************************************************************************
 895:Generated_Source\PSoC5/SPI_IMU.c ****     * Function Name: SPI_IMU_TxEnable
 896:Generated_Source\PSoC5/SPI_IMU.c ****     ********************************************************************************
 897:Generated_Source\PSoC5/SPI_IMU.c ****     *
 898:Generated_Source\PSoC5/SPI_IMU.c ****     * Summary:
 899:Generated_Source\PSoC5/SPI_IMU.c ****     *  If the SPI master is configured to use a single bi-directional pin then this
 900:Generated_Source\PSoC5/SPI_IMU.c ****     *  will set the bi-directional pin to transmit.
 901:Generated_Source\PSoC5/SPI_IMU.c ****     *
 902:Generated_Source\PSoC5/SPI_IMU.c ****     * Parameters:
 903:Generated_Source\PSoC5/SPI_IMU.c ****     *  None.
 904:Generated_Source\PSoC5/SPI_IMU.c ****     *
 905:Generated_Source\PSoC5/SPI_IMU.c ****     * Return:
 906:Generated_Source\PSoC5/SPI_IMU.c ****     *  None.
 907:Generated_Source\PSoC5/SPI_IMU.c ****     *
 908:Generated_Source\PSoC5/SPI_IMU.c ****     *******************************************************************************/
 909:Generated_Source\PSoC5/SPI_IMU.c ****     void SPI_IMU_TxEnable(void) 
 910:Generated_Source\PSoC5/SPI_IMU.c ****     {
 911:Generated_Source\PSoC5/SPI_IMU.c ****         SPI_IMU_CONTROL_REG |= SPI_IMU_CTRL_TX_SIGNAL_EN;
 912:Generated_Source\PSoC5/SPI_IMU.c ****     }
 913:Generated_Source\PSoC5/SPI_IMU.c **** 
 914:Generated_Source\PSoC5/SPI_IMU.c **** 
 915:Generated_Source\PSoC5/SPI_IMU.c ****     /*******************************************************************************
 916:Generated_Source\PSoC5/SPI_IMU.c ****     * Function Name: SPI_IMU_TxDisable
 917:Generated_Source\PSoC5/SPI_IMU.c ****     ********************************************************************************
 918:Generated_Source\PSoC5/SPI_IMU.c ****     *
 919:Generated_Source\PSoC5/SPI_IMU.c ****     * Summary:
 920:Generated_Source\PSoC5/SPI_IMU.c ****     *  If the SPI master is configured to use a single bi-directional pin then this
 921:Generated_Source\PSoC5/SPI_IMU.c ****     *  will set the bi-directional pin to receive.
 922:Generated_Source\PSoC5/SPI_IMU.c ****     *
 923:Generated_Source\PSoC5/SPI_IMU.c ****     * Parameters:
ARM GAS  C:\Users\mgnocco\AppData\Local\Temp\ccn1tU5b.s 			page 26


 924:Generated_Source\PSoC5/SPI_IMU.c ****     *  None.
 925:Generated_Source\PSoC5/SPI_IMU.c ****     *
 926:Generated_Source\PSoC5/SPI_IMU.c ****     * Return:
 927:Generated_Source\PSoC5/SPI_IMU.c ****     *  None.
 928:Generated_Source\PSoC5/SPI_IMU.c ****     *
 929:Generated_Source\PSoC5/SPI_IMU.c ****     *******************************************************************************/
 930:Generated_Source\PSoC5/SPI_IMU.c ****     void SPI_IMU_TxDisable(void) 
 931:Generated_Source\PSoC5/SPI_IMU.c ****     {
 932:Generated_Source\PSoC5/SPI_IMU.c ****         SPI_IMU_CONTROL_REG &= ((uint8) ~SPI_IMU_CTRL_TX_SIGNAL_EN);
 933:Generated_Source\PSoC5/SPI_IMU.c ****     }
 934:Generated_Source\PSoC5/SPI_IMU.c **** 
 935:Generated_Source\PSoC5/SPI_IMU.c **** #endif /* (0u != SPI_IMU_BIDIRECTIONAL_MODE) */
 936:Generated_Source\PSoC5/SPI_IMU.c **** 
 937:Generated_Source\PSoC5/SPI_IMU.c **** 
 938:Generated_Source\PSoC5/SPI_IMU.c **** /*******************************************************************************
 939:Generated_Source\PSoC5/SPI_IMU.c **** * Function Name: SPI_IMU_PutArray
 940:Generated_Source\PSoC5/SPI_IMU.c **** ********************************************************************************
 941:Generated_Source\PSoC5/SPI_IMU.c **** *
 942:Generated_Source\PSoC5/SPI_IMU.c **** * Summary:
 943:Generated_Source\PSoC5/SPI_IMU.c **** *  Write available data from ROM/RAM to the TX buffer while space is available
 944:Generated_Source\PSoC5/SPI_IMU.c **** *  in the TX buffer. Keep trying until all data is passed to the TX buffer.
 945:Generated_Source\PSoC5/SPI_IMU.c **** *
 946:Generated_Source\PSoC5/SPI_IMU.c **** * Parameters:
 947:Generated_Source\PSoC5/SPI_IMU.c **** *  *buffer: Pointer to the location in RAM containing the data to send
 948:Generated_Source\PSoC5/SPI_IMU.c **** *  byteCount: The number of bytes to move to the transmit buffer.
 949:Generated_Source\PSoC5/SPI_IMU.c **** *
 950:Generated_Source\PSoC5/SPI_IMU.c **** * Return:
 951:Generated_Source\PSoC5/SPI_IMU.c **** *  None.
 952:Generated_Source\PSoC5/SPI_IMU.c **** *
 953:Generated_Source\PSoC5/SPI_IMU.c **** * Side Effects:
 954:Generated_Source\PSoC5/SPI_IMU.c **** *  Will stay in this routine until all data has been sent.  May get locked in
 955:Generated_Source\PSoC5/SPI_IMU.c **** *  this loop if data is not being initiated by the master if there is not
 956:Generated_Source\PSoC5/SPI_IMU.c **** *  enough room in the TX FIFO.
 957:Generated_Source\PSoC5/SPI_IMU.c **** *
 958:Generated_Source\PSoC5/SPI_IMU.c **** * Reentrant:
 959:Generated_Source\PSoC5/SPI_IMU.c **** *  No.
 960:Generated_Source\PSoC5/SPI_IMU.c **** *
 961:Generated_Source\PSoC5/SPI_IMU.c **** *******************************************************************************/
 962:Generated_Source\PSoC5/SPI_IMU.c **** void SPI_IMU_PutArray(const uint8 buffer[], uint8 byteCount)
 963:Generated_Source\PSoC5/SPI_IMU.c ****                                                                           
 964:Generated_Source\PSoC5/SPI_IMU.c **** {
 496              		.loc 1 964 0
 497              		.cfi_startproc
 498              		@ args = 0, pretend = 0, frame = 0
 499              		@ frame_needed = 0, uses_anonymous_args = 0
 500              	.LVL16:
 501 0000 10B5     		push	{r4, lr}
 502              		.cfi_def_cfa_offset 8
 503              		.cfi_offset 4, -8
 504              		.cfi_offset 14, -4
 505 0002 441E     		subs	r4, r0, #1
 506              	.LVL17:
 507              	.L52:
 965:Generated_Source\PSoC5/SPI_IMU.c ****     uint8 bufIndex;
 966:Generated_Source\PSoC5/SPI_IMU.c **** 
 967:Generated_Source\PSoC5/SPI_IMU.c ****     bufIndex = 0u;
 968:Generated_Source\PSoC5/SPI_IMU.c **** 
ARM GAS  C:\Users\mgnocco\AppData\Local\Temp\ccn1tU5b.s 			page 27


 969:Generated_Source\PSoC5/SPI_IMU.c ****     while(byteCount > 0u)
 508              		.loc 1 969 0
 509 0004 31B1     		cbz	r1, .L54
 970:Generated_Source\PSoC5/SPI_IMU.c ****     {
 971:Generated_Source\PSoC5/SPI_IMU.c ****         SPI_IMU_WriteTxData(buffer[bufIndex]);
 510              		.loc 1 971 0
 511 0006 14F8010F 		ldrb	r0, [r4, #1]!	@ zero_extendqisi2
 512              	.LVL18:
 513 000a FFF7FEFF 		bl	SPI_IMU_WriteTxData
 514              	.LVL19:
 972:Generated_Source\PSoC5/SPI_IMU.c ****         bufIndex++;
 973:Generated_Source\PSoC5/SPI_IMU.c ****         byteCount--;
 515              		.loc 1 973 0
 516 000e 0139     		subs	r1, r1, #1
 517 0010 C9B2     		uxtb	r1, r1
 518              	.LVL20:
 519 0012 F7E7     		b	.L52
 520              	.L54:
 974:Generated_Source\PSoC5/SPI_IMU.c ****     }
 975:Generated_Source\PSoC5/SPI_IMU.c **** }
 521              		.loc 1 975 0
 522 0014 10BD     		pop	{r4, pc}
 523              		.cfi_endproc
 524              	.LFE18:
 525              		.size	SPI_IMU_PutArray, .-SPI_IMU_PutArray
 526              		.section	.text.SPI_IMU_ClearFIFO,"ax",%progbits
 527              		.align	1
 528              		.global	SPI_IMU_ClearFIFO
 529              		.thumb
 530              		.thumb_func
 531              		.type	SPI_IMU_ClearFIFO, %function
 532              	SPI_IMU_ClearFIFO:
 533              	.LFB19:
 976:Generated_Source\PSoC5/SPI_IMU.c **** 
 977:Generated_Source\PSoC5/SPI_IMU.c **** 
 978:Generated_Source\PSoC5/SPI_IMU.c **** /*******************************************************************************
 979:Generated_Source\PSoC5/SPI_IMU.c **** * Function Name: SPI_IMU_ClearFIFO
 980:Generated_Source\PSoC5/SPI_IMU.c **** ********************************************************************************
 981:Generated_Source\PSoC5/SPI_IMU.c **** *
 982:Generated_Source\PSoC5/SPI_IMU.c **** * Summary:
 983:Generated_Source\PSoC5/SPI_IMU.c **** *  Clear the RX and TX FIFO's of all data for a fresh start.
 984:Generated_Source\PSoC5/SPI_IMU.c **** *
 985:Generated_Source\PSoC5/SPI_IMU.c **** * Parameters:
 986:Generated_Source\PSoC5/SPI_IMU.c **** *  None.
 987:Generated_Source\PSoC5/SPI_IMU.c **** *
 988:Generated_Source\PSoC5/SPI_IMU.c **** * Return:
 989:Generated_Source\PSoC5/SPI_IMU.c **** *  None.
 990:Generated_Source\PSoC5/SPI_IMU.c **** *
 991:Generated_Source\PSoC5/SPI_IMU.c **** * Side Effects:
 992:Generated_Source\PSoC5/SPI_IMU.c **** *  Clear status register of the component.
 993:Generated_Source\PSoC5/SPI_IMU.c **** *
 994:Generated_Source\PSoC5/SPI_IMU.c **** *******************************************************************************/
 995:Generated_Source\PSoC5/SPI_IMU.c **** void SPI_IMU_ClearFIFO(void) 
 996:Generated_Source\PSoC5/SPI_IMU.c **** {
 534              		.loc 1 996 0
 535              		.cfi_startproc
 536              		@ args = 0, pretend = 0, frame = 0
ARM GAS  C:\Users\mgnocco\AppData\Local\Temp\ccn1tU5b.s 			page 28


 537              		@ frame_needed = 0, uses_anonymous_args = 0
 538 0000 08B5     		push	{r3, lr}
 539              		.cfi_def_cfa_offset 8
 540              		.cfi_offset 3, -8
 541              		.cfi_offset 14, -4
 997:Generated_Source\PSoC5/SPI_IMU.c ****     uint8 enableInterrupts;
 998:Generated_Source\PSoC5/SPI_IMU.c **** 
 999:Generated_Source\PSoC5/SPI_IMU.c ****     /* Clear Hardware RX FIFO */
1000:Generated_Source\PSoC5/SPI_IMU.c ****     while(0u !=(SPI_IMU_RX_STATUS_REG & SPI_IMU_STS_RX_FIFO_NOT_EMPTY))
 542              		.loc 1 1000 0
 543 0002 0B4A     		ldr	r2, .L59
1001:Generated_Source\PSoC5/SPI_IMU.c ****     {
1002:Generated_Source\PSoC5/SPI_IMU.c ****         (void) CY_GET_REG8(SPI_IMU_RXDATA_PTR);
 544              		.loc 1 1002 0
 545 0004 0B49     		ldr	r1, .L59+4
 546              	.L56:
1000:Generated_Source\PSoC5/SPI_IMU.c ****     {
 547              		.loc 1 1000 0
 548 0006 1378     		ldrb	r3, [r2]	@ zero_extendqisi2
 549 0008 9B06     		lsls	r3, r3, #26
 550 000a 01D5     		bpl	.L58
 551              		.loc 1 1002 0
 552 000c 0B78     		ldrb	r3, [r1]	@ zero_extendqisi2
 553 000e FAE7     		b	.L56
 554              	.L58:
1003:Generated_Source\PSoC5/SPI_IMU.c ****     }
1004:Generated_Source\PSoC5/SPI_IMU.c **** 
1005:Generated_Source\PSoC5/SPI_IMU.c ****     enableInterrupts = CyEnterCriticalSection();
 555              		.loc 1 1005 0
 556 0010 FFF7FEFF 		bl	CyEnterCriticalSection
 557              	.LVL21:
1006:Generated_Source\PSoC5/SPI_IMU.c ****     /* Clear TX FIFO */
1007:Generated_Source\PSoC5/SPI_IMU.c ****     SPI_IMU_AUX_CONTROL_DP0_REG |= ((uint8)  SPI_IMU_TX_FIFO_CLR);
 558              		.loc 1 1007 0
 559 0014 084B     		ldr	r3, .L59+8
 560 0016 1A78     		ldrb	r2, [r3]	@ zero_extendqisi2
 561 0018 42F00102 		orr	r2, r2, #1
 562 001c 1A70     		strb	r2, [r3]
1008:Generated_Source\PSoC5/SPI_IMU.c ****     SPI_IMU_AUX_CONTROL_DP0_REG &= ((uint8) ~SPI_IMU_TX_FIFO_CLR);
 563              		.loc 1 1008 0
 564 001e 1A78     		ldrb	r2, [r3]	@ zero_extendqisi2
 565 0020 02F0FE02 		and	r2, r2, #254
 566 0024 1A70     		strb	r2, [r3]
1009:Generated_Source\PSoC5/SPI_IMU.c **** 
1010:Generated_Source\PSoC5/SPI_IMU.c ****     #if(SPI_IMU_USE_SECOND_DATAPATH)
1011:Generated_Source\PSoC5/SPI_IMU.c ****         /* Clear TX FIFO for 2nd Datapath */
1012:Generated_Source\PSoC5/SPI_IMU.c ****         SPI_IMU_AUX_CONTROL_DP1_REG |= ((uint8)  SPI_IMU_TX_FIFO_CLR);
1013:Generated_Source\PSoC5/SPI_IMU.c ****         SPI_IMU_AUX_CONTROL_DP1_REG &= ((uint8) ~SPI_IMU_TX_FIFO_CLR);
1014:Generated_Source\PSoC5/SPI_IMU.c ****     #endif /* (SPI_IMU_USE_SECOND_DATAPATH) */
1015:Generated_Source\PSoC5/SPI_IMU.c ****     CyExitCriticalSection(enableInterrupts);
1016:Generated_Source\PSoC5/SPI_IMU.c **** }
 567              		.loc 1 1016 0
 568 0026 BDE80840 		pop	{r3, lr}
 569              		.cfi_restore 14
 570              		.cfi_restore 3
 571              		.cfi_def_cfa_offset 0
1015:Generated_Source\PSoC5/SPI_IMU.c **** }
ARM GAS  C:\Users\mgnocco\AppData\Local\Temp\ccn1tU5b.s 			page 29


 572              		.loc 1 1015 0
 573 002a FFF7FEBF 		b	CyExitCriticalSection
 574              	.LVL22:
 575              	.L60:
 576 002e 00BF     		.align	2
 577              	.L59:
 578 0030 64640040 		.word	1073767524
 579 0034 57640040 		.word	1073767511
 580 0038 97640040 		.word	1073767575
 581              		.cfi_endproc
 582              	.LFE19:
 583              		.size	SPI_IMU_ClearFIFO, .-SPI_IMU_ClearFIFO
 584              		.section	.text.SPI_IMU_Init,"ax",%progbits
 585              		.align	1
 586              		.global	SPI_IMU_Init
 587              		.thumb
 588              		.thumb_func
 589              		.type	SPI_IMU_Init, %function
 590              	SPI_IMU_Init:
 591              	.LFB0:
  64:Generated_Source\PSoC5/SPI_IMU.c ****     /* Initialize the Bit counter */
 592              		.loc 1 64 0
 593              		.cfi_startproc
 594              		@ args = 0, pretend = 0, frame = 0
 595              		@ frame_needed = 0, uses_anonymous_args = 0
 596 0000 08B5     		push	{r3, lr}
 597              		.cfi_def_cfa_offset 8
 598              		.cfi_offset 3, -8
 599              		.cfi_offset 14, -4
  66:Generated_Source\PSoC5/SPI_IMU.c **** 
 600              		.loc 1 66 0
 601 0002 084B     		ldr	r3, .L62
 602 0004 0F22     		movs	r2, #15
 603 0006 1A70     		strb	r2, [r3]
  83:Generated_Source\PSoC5/SPI_IMU.c **** 
 604              		.loc 1 83 0
 605 0008 FFF7FEFF 		bl	SPI_IMU_ClearFIFO
 606              	.LVL23:
 607              	.LBB22:
 608              	.LBB23:
 401:Generated_Source\PSoC5/SPI_IMU.c **** 
 609              		.loc 1 401 0
 610 000c 064B     		ldr	r3, .L62+4
 611              	.LBE23:
 612              	.LBE22:
 101:Generated_Source\PSoC5/SPI_IMU.c ****     SPI_IMU_RX_STATUS_MASK_REG = SPI_IMU_RX_INIT_INTERRUPTS_MASK;
 613              		.loc 1 101 0
 614 000e 074A     		ldr	r2, .L62+8
 615              	.LBB25:
 616              	.LBB24:
 401:Generated_Source\PSoC5/SPI_IMU.c **** 
 617              		.loc 1 401 0
 618 0010 1B78     		ldrb	r3, [r3]	@ zero_extendqisi2
 619              	.LBE24:
 620              	.LBE25:
 621              	.LBB26:
 622              	.LBB27:
ARM GAS  C:\Users\mgnocco\AppData\Local\Temp\ccn1tU5b.s 			page 30


 452:Generated_Source\PSoC5/SPI_IMU.c **** 
 623              		.loc 1 452 0
 624 0012 074B     		ldr	r3, .L62+12
 625              	.LBE27:
 626              	.LBE26:
 102:Generated_Source\PSoC5/SPI_IMU.c **** }
 627              		.loc 1 102 0
 628 0014 6FF48171 		mvn	r1, #258
 629              	.LBB29:
 630              	.LBB28:
 452:Generated_Source\PSoC5/SPI_IMU.c **** 
 631              		.loc 1 452 0
 632 0018 1B78     		ldrb	r3, [r3]	@ zero_extendqisi2
 633              	.LBE28:
 634              	.LBE29:
 101:Generated_Source\PSoC5/SPI_IMU.c ****     SPI_IMU_RX_STATUS_MASK_REG = SPI_IMU_RX_INIT_INTERRUPTS_MASK;
 635              		.loc 1 101 0
 636 001a 0023     		movs	r3, #0
 637 001c 1370     		strb	r3, [r2]
 102:Generated_Source\PSoC5/SPI_IMU.c **** }
 638              		.loc 1 102 0
 639 001e 0A44     		add	r2, r2, r1
 640 0020 1370     		strb	r3, [r2]
 641 0022 08BD     		pop	{r3, pc}
 642              	.L63:
 643              		.align	2
 644              	.L62:
 645 0024 87640040 		.word	1073767559
 646 0028 67650040 		.word	1073767783
 647 002c 87650040 		.word	1073767815
 648 0030 64640040 		.word	1073767524
 649              		.cfi_endproc
 650              	.LFE0:
 651              		.size	SPI_IMU_Init, .-SPI_IMU_Init
 652              		.section	.text.SPI_IMU_Start,"ax",%progbits
 653              		.align	1
 654              		.global	SPI_IMU_Start
 655              		.thumb
 656              		.thumb_func
 657              		.type	SPI_IMU_Start, %function
 658              	SPI_IMU_Start:
 659              	.LFB2:
 164:Generated_Source\PSoC5/SPI_IMU.c ****     if(0u == SPI_IMU_initVar)
 660              		.loc 1 164 0
 661              		.cfi_startproc
 662              		@ args = 0, pretend = 0, frame = 0
 663              		@ frame_needed = 0, uses_anonymous_args = 0
 664 0000 10B5     		push	{r4, lr}
 665              		.cfi_def_cfa_offset 8
 666              		.cfi_offset 4, -8
 667              		.cfi_offset 14, -4
 165:Generated_Source\PSoC5/SPI_IMU.c ****     {
 668              		.loc 1 165 0
 669 0002 054C     		ldr	r4, .L66
 670 0004 2378     		ldrb	r3, [r4]	@ zero_extendqisi2
 671 0006 1BB9     		cbnz	r3, .L65
 167:Generated_Source\PSoC5/SPI_IMU.c ****         SPI_IMU_initVar = 1u;
ARM GAS  C:\Users\mgnocco\AppData\Local\Temp\ccn1tU5b.s 			page 31


 672              		.loc 1 167 0
 673 0008 FFF7FEFF 		bl	SPI_IMU_Init
 674              	.LVL24:
 168:Generated_Source\PSoC5/SPI_IMU.c ****     }
 675              		.loc 1 168 0
 676 000c 0123     		movs	r3, #1
 677 000e 2370     		strb	r3, [r4]
 678              	.L65:
 172:Generated_Source\PSoC5/SPI_IMU.c **** 
 679              		.loc 1 172 0
 680 0010 BDE81040 		pop	{r4, lr}
 681              		.cfi_restore 14
 682              		.cfi_restore 4
 683              		.cfi_def_cfa_offset 0
 171:Generated_Source\PSoC5/SPI_IMU.c **** }
 684              		.loc 1 171 0
 685 0014 FFF7FEBF 		b	SPI_IMU_Enable
 686              	.LVL25:
 687              	.L67:
 688              		.align	2
 689              	.L66:
 690 0018 00000000 		.word	.LANCHOR0
 691              		.cfi_endproc
 692              	.LFE2:
 693              		.size	SPI_IMU_Start, .-SPI_IMU_Start
 694              		.section	.text.SPI_IMU_EnableInt,"ax",%progbits
 695              		.align	1
 696              		.global	SPI_IMU_EnableInt
 697              		.thumb
 698              		.thumb_func
 699              		.type	SPI_IMU_EnableInt, %function
 700              	SPI_IMU_EnableInt:
 701              	.LFB25:
 702              		.cfi_startproc
 703              		@ args = 0, pretend = 0, frame = 0
 704              		@ frame_needed = 0, uses_anonymous_args = 0
 705              		@ link register save eliminated.
 706 0000 7047     		bx	lr
 707              		.cfi_endproc
 708              	.LFE25:
 709              		.size	SPI_IMU_EnableInt, .-SPI_IMU_EnableInt
 710              		.section	.text.SPI_IMU_DisableInt,"ax",%progbits
 711              		.align	1
 712              		.global	SPI_IMU_DisableInt
 713              		.thumb
 714              		.thumb_func
 715              		.type	SPI_IMU_DisableInt, %function
 716              	SPI_IMU_DisableInt:
 717              	.LFB21:
1017:Generated_Source\PSoC5/SPI_IMU.c **** 
1018:Generated_Source\PSoC5/SPI_IMU.c **** 
1019:Generated_Source\PSoC5/SPI_IMU.c **** /* Following functions are for version Compatibility, they are obsolete.
1020:Generated_Source\PSoC5/SPI_IMU.c **** *  Please do not use it in new projects.
1021:Generated_Source\PSoC5/SPI_IMU.c **** */
1022:Generated_Source\PSoC5/SPI_IMU.c **** 
1023:Generated_Source\PSoC5/SPI_IMU.c **** 
1024:Generated_Source\PSoC5/SPI_IMU.c **** /*******************************************************************************
ARM GAS  C:\Users\mgnocco\AppData\Local\Temp\ccn1tU5b.s 			page 32


1025:Generated_Source\PSoC5/SPI_IMU.c **** * Function Name: SPI_IMU_EnableInt
1026:Generated_Source\PSoC5/SPI_IMU.c **** ********************************************************************************
1027:Generated_Source\PSoC5/SPI_IMU.c **** *
1028:Generated_Source\PSoC5/SPI_IMU.c **** * Summary:
1029:Generated_Source\PSoC5/SPI_IMU.c **** *  Enable internal interrupt generation.
1030:Generated_Source\PSoC5/SPI_IMU.c **** *
1031:Generated_Source\PSoC5/SPI_IMU.c **** * Parameters:
1032:Generated_Source\PSoC5/SPI_IMU.c **** *  None.
1033:Generated_Source\PSoC5/SPI_IMU.c **** *
1034:Generated_Source\PSoC5/SPI_IMU.c **** * Return:
1035:Generated_Source\PSoC5/SPI_IMU.c **** *  None.
1036:Generated_Source\PSoC5/SPI_IMU.c **** *
1037:Generated_Source\PSoC5/SPI_IMU.c **** * Theory:
1038:Generated_Source\PSoC5/SPI_IMU.c **** *  Enable the internal interrupt output -or- the interrupt component itself.
1039:Generated_Source\PSoC5/SPI_IMU.c **** *
1040:Generated_Source\PSoC5/SPI_IMU.c **** *******************************************************************************/
1041:Generated_Source\PSoC5/SPI_IMU.c **** void SPI_IMU_EnableInt(void) 
1042:Generated_Source\PSoC5/SPI_IMU.c **** {
1043:Generated_Source\PSoC5/SPI_IMU.c ****     SPI_IMU_EnableRxInt();
1044:Generated_Source\PSoC5/SPI_IMU.c ****     SPI_IMU_EnableTxInt();
1045:Generated_Source\PSoC5/SPI_IMU.c **** }
1046:Generated_Source\PSoC5/SPI_IMU.c **** 
1047:Generated_Source\PSoC5/SPI_IMU.c **** 
1048:Generated_Source\PSoC5/SPI_IMU.c **** /*******************************************************************************
1049:Generated_Source\PSoC5/SPI_IMU.c **** * Function Name: SPI_IMU_DisableInt
1050:Generated_Source\PSoC5/SPI_IMU.c **** ********************************************************************************
1051:Generated_Source\PSoC5/SPI_IMU.c **** *
1052:Generated_Source\PSoC5/SPI_IMU.c **** * Summary:
1053:Generated_Source\PSoC5/SPI_IMU.c **** *  Disable internal interrupt generation.
1054:Generated_Source\PSoC5/SPI_IMU.c **** *
1055:Generated_Source\PSoC5/SPI_IMU.c **** * Parameters:
1056:Generated_Source\PSoC5/SPI_IMU.c **** *  None.
1057:Generated_Source\PSoC5/SPI_IMU.c **** *
1058:Generated_Source\PSoC5/SPI_IMU.c **** * Return:
1059:Generated_Source\PSoC5/SPI_IMU.c **** *  None.
1060:Generated_Source\PSoC5/SPI_IMU.c **** *
1061:Generated_Source\PSoC5/SPI_IMU.c **** * Theory:
1062:Generated_Source\PSoC5/SPI_IMU.c **** *  Disable the internal interrupt output -or- the interrupt component itself.
1063:Generated_Source\PSoC5/SPI_IMU.c **** *
1064:Generated_Source\PSoC5/SPI_IMU.c **** *******************************************************************************/
1065:Generated_Source\PSoC5/SPI_IMU.c **** void SPI_IMU_DisableInt(void) 
1066:Generated_Source\PSoC5/SPI_IMU.c **** {
 718              		.loc 1 1066 0
 719              		.cfi_startproc
 720              		@ args = 0, pretend = 0, frame = 0
 721              		@ frame_needed = 0, uses_anonymous_args = 0
 722              		@ link register save eliminated.
 723 0000 7047     		bx	lr
 724              		.cfi_endproc
 725              	.LFE21:
 726              		.size	SPI_IMU_DisableInt, .-SPI_IMU_DisableInt
 727              		.section	.text.SPI_IMU_SetInterruptMode,"ax",%progbits
 728              		.align	1
 729              		.global	SPI_IMU_SetInterruptMode
 730              		.thumb
 731              		.thumb_func
 732              		.type	SPI_IMU_SetInterruptMode, %function
ARM GAS  C:\Users\mgnocco\AppData\Local\Temp\ccn1tU5b.s 			page 33


 733              	SPI_IMU_SetInterruptMode:
 734              	.LFB22:
1067:Generated_Source\PSoC5/SPI_IMU.c ****     SPI_IMU_DisableTxInt();
1068:Generated_Source\PSoC5/SPI_IMU.c ****     SPI_IMU_DisableRxInt();
1069:Generated_Source\PSoC5/SPI_IMU.c **** }
1070:Generated_Source\PSoC5/SPI_IMU.c **** 
1071:Generated_Source\PSoC5/SPI_IMU.c **** 
1072:Generated_Source\PSoC5/SPI_IMU.c **** /*******************************************************************************
1073:Generated_Source\PSoC5/SPI_IMU.c **** * Function Name: SPI_IMU_SetInterruptMode
1074:Generated_Source\PSoC5/SPI_IMU.c **** ********************************************************************************
1075:Generated_Source\PSoC5/SPI_IMU.c **** *
1076:Generated_Source\PSoC5/SPI_IMU.c **** * Summary:
1077:Generated_Source\PSoC5/SPI_IMU.c **** *  Configure which status bits trigger an interrupt event.
1078:Generated_Source\PSoC5/SPI_IMU.c **** *
1079:Generated_Source\PSoC5/SPI_IMU.c **** * Parameters:
1080:Generated_Source\PSoC5/SPI_IMU.c **** *  intSrc: An or'd combination of the desired status bit masks (defined in the
1081:Generated_Source\PSoC5/SPI_IMU.c **** *  header file).
1082:Generated_Source\PSoC5/SPI_IMU.c **** *
1083:Generated_Source\PSoC5/SPI_IMU.c **** * Return:
1084:Generated_Source\PSoC5/SPI_IMU.c **** *  None.
1085:Generated_Source\PSoC5/SPI_IMU.c **** *
1086:Generated_Source\PSoC5/SPI_IMU.c **** * Theory:
1087:Generated_Source\PSoC5/SPI_IMU.c **** *  Enables the output of specific status bits to the interrupt controller.
1088:Generated_Source\PSoC5/SPI_IMU.c **** *
1089:Generated_Source\PSoC5/SPI_IMU.c **** *******************************************************************************/
1090:Generated_Source\PSoC5/SPI_IMU.c **** void SPI_IMU_SetInterruptMode(uint8 intSrc) 
1091:Generated_Source\PSoC5/SPI_IMU.c **** {
 735              		.loc 1 1091 0
 736              		.cfi_startproc
 737              		@ args = 0, pretend = 0, frame = 0
 738              		@ frame_needed = 0, uses_anonymous_args = 0
 739              		@ link register save eliminated.
 740              	.LVL26:
1092:Generated_Source\PSoC5/SPI_IMU.c ****     SPI_IMU_TX_STATUS_MASK_REG  = (intSrc & ((uint8) ~SPI_IMU_STS_SPI_IDLE));
 741              		.loc 1 1092 0
 742 0000 044B     		ldr	r3, .L71
 743 0002 00F0EF02 		and	r2, r0, #239
 744 0006 1A70     		strb	r2, [r3]
1093:Generated_Source\PSoC5/SPI_IMU.c ****     SPI_IMU_RX_STATUS_MASK_REG  =  intSrc;
 745              		.loc 1 1093 0
 746 0008 6FF48172 		mvn	r2, #258
 747 000c 1344     		add	r3, r3, r2
 748 000e 1870     		strb	r0, [r3]
 749 0010 7047     		bx	lr
 750              	.L72:
 751 0012 00BF     		.align	2
 752              	.L71:
 753 0014 87650040 		.word	1073767815
 754              		.cfi_endproc
 755              	.LFE22:
 756              		.size	SPI_IMU_SetInterruptMode, .-SPI_IMU_SetInterruptMode
 757              		.section	.text.SPI_IMU_ReadStatus,"ax",%progbits
 758              		.align	1
 759              		.global	SPI_IMU_ReadStatus
 760              		.thumb
 761              		.thumb_func
 762              		.type	SPI_IMU_ReadStatus, %function
ARM GAS  C:\Users\mgnocco\AppData\Local\Temp\ccn1tU5b.s 			page 34


 763              	SPI_IMU_ReadStatus:
 764              	.LFB23:
1094:Generated_Source\PSoC5/SPI_IMU.c **** }
1095:Generated_Source\PSoC5/SPI_IMU.c **** 
1096:Generated_Source\PSoC5/SPI_IMU.c **** 
1097:Generated_Source\PSoC5/SPI_IMU.c **** /*******************************************************************************
1098:Generated_Source\PSoC5/SPI_IMU.c **** * Function Name: SPI_IMU_ReadStatus
1099:Generated_Source\PSoC5/SPI_IMU.c **** ********************************************************************************
1100:Generated_Source\PSoC5/SPI_IMU.c **** *
1101:Generated_Source\PSoC5/SPI_IMU.c **** * Summary:
1102:Generated_Source\PSoC5/SPI_IMU.c **** *  Read the status register for the component.
1103:Generated_Source\PSoC5/SPI_IMU.c **** *
1104:Generated_Source\PSoC5/SPI_IMU.c **** * Parameters:
1105:Generated_Source\PSoC5/SPI_IMU.c **** *  None.
1106:Generated_Source\PSoC5/SPI_IMU.c **** *
1107:Generated_Source\PSoC5/SPI_IMU.c **** * Return:
1108:Generated_Source\PSoC5/SPI_IMU.c **** *  Contents of the status register.
1109:Generated_Source\PSoC5/SPI_IMU.c **** *
1110:Generated_Source\PSoC5/SPI_IMU.c **** * Global variables:
1111:Generated_Source\PSoC5/SPI_IMU.c **** *  SPI_IMU_swStatus - used to store in software status register,
1112:Generated_Source\PSoC5/SPI_IMU.c **** *  modified every function call - resets to zero.
1113:Generated_Source\PSoC5/SPI_IMU.c **** *
1114:Generated_Source\PSoC5/SPI_IMU.c **** * Theory:
1115:Generated_Source\PSoC5/SPI_IMU.c **** *  Allows the user and the API to read the status register for error detection
1116:Generated_Source\PSoC5/SPI_IMU.c **** *  and flow control.
1117:Generated_Source\PSoC5/SPI_IMU.c **** *
1118:Generated_Source\PSoC5/SPI_IMU.c **** * Side Effects:
1119:Generated_Source\PSoC5/SPI_IMU.c **** *  Clear status register of the component.
1120:Generated_Source\PSoC5/SPI_IMU.c **** *
1121:Generated_Source\PSoC5/SPI_IMU.c **** * Reentrant:
1122:Generated_Source\PSoC5/SPI_IMU.c **** *  No.
1123:Generated_Source\PSoC5/SPI_IMU.c **** *
1124:Generated_Source\PSoC5/SPI_IMU.c **** *******************************************************************************/
1125:Generated_Source\PSoC5/SPI_IMU.c **** uint8 SPI_IMU_ReadStatus(void) 
1126:Generated_Source\PSoC5/SPI_IMU.c **** {
 765              		.loc 1 1126 0
 766              		.cfi_startproc
 767              		@ args = 0, pretend = 0, frame = 0
 768              		@ frame_needed = 0, uses_anonymous_args = 0
 769              		@ link register save eliminated.
1127:Generated_Source\PSoC5/SPI_IMU.c ****     uint8 tmpStatus;
1128:Generated_Source\PSoC5/SPI_IMU.c **** 
1129:Generated_Source\PSoC5/SPI_IMU.c ****     #if(SPI_IMU_TX_SOFTWARE_BUF_ENABLED || SPI_IMU_RX_SOFTWARE_BUF_ENABLED)
1130:Generated_Source\PSoC5/SPI_IMU.c **** 
1131:Generated_Source\PSoC5/SPI_IMU.c ****         SPI_IMU_DisableInt();
1132:Generated_Source\PSoC5/SPI_IMU.c **** 
1133:Generated_Source\PSoC5/SPI_IMU.c ****         tmpStatus  = SPI_IMU_GET_STATUS_RX(SPI_IMU_swStatusRx);
1134:Generated_Source\PSoC5/SPI_IMU.c ****         tmpStatus |= SPI_IMU_GET_STATUS_TX(SPI_IMU_swStatusTx);
1135:Generated_Source\PSoC5/SPI_IMU.c ****         tmpStatus &= ((uint8) ~SPI_IMU_STS_SPI_IDLE);
1136:Generated_Source\PSoC5/SPI_IMU.c **** 
1137:Generated_Source\PSoC5/SPI_IMU.c ****         SPI_IMU_swStatusTx = 0u;
1138:Generated_Source\PSoC5/SPI_IMU.c ****         SPI_IMU_swStatusRx = 0u;
1139:Generated_Source\PSoC5/SPI_IMU.c **** 
1140:Generated_Source\PSoC5/SPI_IMU.c ****         SPI_IMU_EnableInt();
1141:Generated_Source\PSoC5/SPI_IMU.c **** 
1142:Generated_Source\PSoC5/SPI_IMU.c ****     #else
1143:Generated_Source\PSoC5/SPI_IMU.c **** 
ARM GAS  C:\Users\mgnocco\AppData\Local\Temp\ccn1tU5b.s 			page 35


1144:Generated_Source\PSoC5/SPI_IMU.c ****         tmpStatus  = SPI_IMU_RX_STATUS_REG;
 770              		.loc 1 1144 0
 771 0000 044B     		ldr	r3, .L74
 772 0002 1878     		ldrb	r0, [r3]	@ zero_extendqisi2
 773              	.LVL27:
1145:Generated_Source\PSoC5/SPI_IMU.c ****         tmpStatus |= SPI_IMU_TX_STATUS_REG;
 774              		.loc 1 1145 0
 775 0004 03F20313 		addw	r3, r3, #259
 776 0008 1B78     		ldrb	r3, [r3]	@ zero_extendqisi2
 777 000a 1843     		orrs	r0, r0, r3
 778              	.LVL28:
1146:Generated_Source\PSoC5/SPI_IMU.c ****         tmpStatus &= ((uint8) ~SPI_IMU_STS_SPI_IDLE);
1147:Generated_Source\PSoC5/SPI_IMU.c **** 
1148:Generated_Source\PSoC5/SPI_IMU.c ****     #endif /* (SPI_IMU_TX_SOFTWARE_BUF_ENABLED || SPI_IMU_RX_SOFTWARE_BUF_ENABLED) */
1149:Generated_Source\PSoC5/SPI_IMU.c **** 
1150:Generated_Source\PSoC5/SPI_IMU.c ****     return(tmpStatus);
1151:Generated_Source\PSoC5/SPI_IMU.c **** }
 779              		.loc 1 1151 0
 780 000c 00F0EF00 		and	r0, r0, #239
 781              	.LVL29:
 782 0010 7047     		bx	lr
 783              	.L75:
 784 0012 00BF     		.align	2
 785              	.L74:
 786 0014 64640040 		.word	1073767524
 787              		.cfi_endproc
 788              	.LFE23:
 789              		.size	SPI_IMU_ReadStatus, .-SPI_IMU_ReadStatus
 790              		.comm	SPI_IMU_swStatusRx,1,1
 791              		.comm	SPI_IMU_swStatusTx,1,1
 792              		.global	SPI_IMU_initVar
 793              		.bss
 794              		.set	.LANCHOR0,. + 0
 795              		.type	SPI_IMU_initVar, %object
 796              		.size	SPI_IMU_initVar, 1
 797              	SPI_IMU_initVar:
 798 0000 00       		.space	1
 799              		.text
 800              	.Letext0:
 801              		.file 2 "Generated_Source\\PSoC5\\cytypes.h"
 802              		.file 3 "Generated_Source\\PSoC5\\CyLib.h"